
========================================================================

** ELF Header Information

    File Name: e:\Èí¼þ\TIMER\TIM_other_TI\prj\TIM_testcase\Project\Objects\Template.axf

    Machine class: ELFCLASS32 (32-bit)
    Data encoding: ELFDATA2LSB (Little endian)
    Header version: EV_CURRENT (Current version)
    Operating System ABI: none
    ABI Version: 0
    File Type: ET_EXEC (Executable) (2)
    Machine: EM_ARM (ARM)

    Image Entry point: 0x08000195
    Flags: EF_ARM_HASENTRY (0x05000002)

    ARM ELF revision: 5 (ABI version 2)

    Conforms to Base float procedure-call standard

    Built with
    Component: ARM Compiler 5.06 update 5 (build 528) Tool: armasm [4d35e1]
    Component: ARM Compiler 5.06 update 5 (build 528) Tool: armlink [4d35e2]

    Header size: 52 bytes (0x34)
    Program header entry size: 32 bytes (0x20)
    Section header entry size: 40 bytes (0x28)

    Program header entries: 1
    Section header entries: 16

    Program header offset: 540716 (0x0008402c)
    Section header offset: 540748 (0x0008404c)

    Section header string table index: 15

========================================================================

** Program header #0 (PT_LOAD) [PF_X + PF_W + PF_R + PF_ARM_ENTRY]
    Size : 4464 bytes (3440 bytes in file)
    Virtual address: 0x08000000 (Alignment 8)


========================================================================

** Section #1 'ER_IROM1' (SHT_PROGBITS) [SHF_ALLOC + SHF_EXECINSTR]
    Size   : 3432 bytes (alignment 4)
    Address: 0x08000000

    $d.realdata
    RESET
    __Vectors
        0x08000000:    20000408    ...     DCD    536871944
        0x08000004:    080001a9    ....    DCD    134218153
        0x08000008:    080001ff    ....    DCD    134218239
        0x0800000c:    080001f7    ....    DCD    134218231
        0x08000010:    080001fb    ....    DCD    134218235
        0x08000014:    080001f1    ....    DCD    134218225
        0x08000018:    08000bcd    ....    DCD    134220749
        0x0800001c:    00000000    ....    DCD    0
        0x08000020:    00000000    ....    DCD    0
        0x08000024:    00000000    ....    DCD    0
        0x08000028:    00000000    ....    DCD    0
        0x0800002c:    0800027b    {...    DCD    134218363
        0x08000030:    080001f5    ....    DCD    134218229
        0x08000034:    00000000    ....    DCD    0
        0x08000038:    08000279    y...    DCD    134218361
        0x0800003c:    08000365    e...    DCD    134218597
        0x08000040:    080001c3    ....    DCD    134218179
        0x08000044:    080001c3    ....    DCD    134218179
        0x08000048:    080001c3    ....    DCD    134218179
        0x0800004c:    080001c3    ....    DCD    134218179
        0x08000050:    080001c3    ....    DCD    134218179
        0x08000054:    080001c3    ....    DCD    134218179
        0x08000058:    080001c3    ....    DCD    134218179
        0x0800005c:    080001c3    ....    DCD    134218179
        0x08000060:    080001c3    ....    DCD    134218179
        0x08000064:    080001c3    ....    DCD    134218179
        0x08000068:    080001c3    ....    DCD    134218179
        0x0800006c:    080001c3    ....    DCD    134218179
        0x08000070:    080001c3    ....    DCD    134218179
        0x08000074:    080001c3    ....    DCD    134218179
        0x08000078:    080001c3    ....    DCD    134218179
        0x0800007c:    080001c3    ....    DCD    134218179
        0x08000080:    080001c3    ....    DCD    134218179
        0x08000084:    080001c3    ....    DCD    134218179
        0x08000088:    080001c3    ....    DCD    134218179
        0x0800008c:    00000000    ....    DCD    0
        0x08000090:    00000000    ....    DCD    0
        0x08000094:    00000000    ....    DCD    0
        0x08000098:    00000000    ....    DCD    0
        0x0800009c:    080001c3    ....    DCD    134218179
        0x080000a0:    080001c3    ....    DCD    134218179
        0x080000a4:    080001c3    ....    DCD    134218179
        0x080000a8:    080001c3    ....    DCD    134218179
        0x080000ac:    080001c3    ....    DCD    134218179
        0x080000b0:    080003d1    ....    DCD    134218705
        0x080000b4:    08000539    9...    DCD    134219065
        0x080000b8:    080006b1    ....    DCD    134219441
        0x080000bc:    080001c3    ....    DCD    134218179
        0x080000c0:    080001c3    ....    DCD    134218179
        0x080000c4:    080001c3    ....    DCD    134218179
        0x080000c8:    080001c3    ....    DCD    134218179
        0x080000cc:    080001c3    ....    DCD    134218179
        0x080000d0:    080001c3    ....    DCD    134218179
        0x080000d4:    080001c3    ....    DCD    134218179
        0x080000d8:    080001c3    ....    DCD    134218179
        0x080000dc:    00000000    ....    DCD    0
        0x080000e0:    080001c3    ....    DCD    134218179
        0x080000e4:    080001c3    ....    DCD    134218179
        0x080000e8:    080001c3    ....    DCD    134218179
        0x080000ec:    00000000    ....    DCD    0
        0x080000f0:    00000000    ....    DCD    0
        0x080000f4:    00000000    ....    DCD    0
        0x080000f8:    00000000    ....    DCD    0
        0x080000fc:    080001c3    ....    DCD    134218179
        0x08000100:    00000000    ....    DCD    0
        0x08000104:    080001c3    ....    DCD    134218179
        0x08000108:    08000829    )...    DCD    134219817
        0x0800010c:    080001c3    ....    DCD    134218179
        0x08000110:    00000000    ....    DCD    0
        0x08000114:    00000000    ....    DCD    0
        0x08000118:    00000000    ....    DCD    0
        0x0800011c:    00000000    ....    DCD    0
        0x08000120:    080001c3    ....    DCD    134218179
        0x08000124:    080001c3    ....    DCD    134218179
        0x08000128:    080001c3    ....    DCD    134218179
        0x0800012c:    080001c3    ....    DCD    134218179
        0x08000130:    080001c3    ....    DCD    134218179
        0x08000134:    00000000    ....    DCD    0
        0x08000138:    00000000    ....    DCD    0
        0x0800013c:    00000000    ....    DCD    0
        0x08000140:    00000000    ....    DCD    0
        0x08000144:    00000000    ....    DCD    0
        0x08000148:    00000000    ....    DCD    0
        0x0800014c:    080001c3    ....    DCD    134218179
        0x08000150:    080001c3    ....    DCD    134218179
        0x08000154:    080001c3    ....    DCD    134218179
        0x08000158:    080001c3    ....    DCD    134218179
        0x0800015c:    080001c3    ....    DCD    134218179
        0x08000160:    080001c3    ....    DCD    134218179
        0x08000164:    080001c3    ....    DCD    134218179
        0x08000168:    00000000    ....    DCD    0
        0x0800016c:    00000000    ....    DCD    0
        0x08000170:    00000000    ....    DCD    0
        0x08000174:    00000000    ....    DCD    0
        0x08000178:    00000000    ....    DCD    0
        0x0800017c:    00000000    ....    DCD    0
        0x08000180:    00000000    ....    DCD    0
        0x08000184:    080001c3    ....    DCD    134218179
        0x08000188:    00000000    ....    DCD    0
        0x0800018c:    00000000    ....    DCD    0
        0x08000190:    080001c3    ....    DCD    134218179
    $t
    .ARM.Collect$$$$00000000
    .ARM.Collect$$$$00000001
    __Vectors_End
    __main
    _main_stk
        0x08000194:    f8dfd00c    ....    LDR      sp,__lit__00000000 ; [0x80001a4] = 0x20000408
    .ARM.Collect$$$$00000004
    _main_scatterload
        0x08000198:    f000f818    ....    BL       __scatterload ; 0x80001cc
    .ARM.Collect$$$$00000008
    .ARM.Collect$$$$0000000A
    .ARM.Collect$$$$0000000B
    __main_after_scatterload
    _main_clock
    _main_cpp_init
    _main_init
        0x0800019c:    4800        .H      LDR      r0,[pc,#0] ; [0x80001a0] = 0x8000c31
        0x0800019e:    4700        .G      BX       r0
    $d
        0x080001a0:    08000c31    1...    DCD    134220849
    .ARM.Collect$$$$00002712
    __lit__00000000
    .ARM.Collect$$$$0000000D
    .ARM.Collect$$$$0000000F
    __rt_final_cpp
    __rt_final_exit
        0x080001a4:    20000408    ...     DCD    536871944
    $t
    .text
    $v0
    Reset_Handler
        0x080001a8:    4806        .H      LDR      r0,[pc,#24] ; [0x80001c4] = 0x8000369
        0x080001aa:    4780        .G      BLX      r0
        0x080001ac:    4806        .H      LDR      r0,[pc,#24] ; [0x80001c8] = 0x8000195
        0x080001ae:    4700        .G      BX       r0
        0x080001b0:    e7fe        ..      B        0x80001b0 ; Reset_Handler + 8
        0x080001b2:    e7fe        ..      B        0x80001b2 ; Reset_Handler + 10
        0x080001b4:    e7fe        ..      B        0x80001b4 ; Reset_Handler + 12
        0x080001b6:    e7fe        ..      B        0x80001b6 ; Reset_Handler + 14
        0x080001b8:    e7fe        ..      B        0x80001b8 ; Reset_Handler + 16
        0x080001ba:    e7fe        ..      B        0x80001ba ; Reset_Handler + 18
        0x080001bc:    e7fe        ..      B        0x80001bc ; Reset_Handler + 20
        0x080001be:    e7fe        ..      B        0x80001be ; Reset_Handler + 22
        0x080001c0:    e7fe        ..      B        0x80001c0 ; Reset_Handler + 24
    ADC_IRQHandler
    DMA1_Stream0_IRQHandler
    DMA1_Stream1_IRQHandler
    DMA1_Stream2_IRQHandler
    DMA1_Stream3_IRQHandler
    DMA1_Stream4_IRQHandler
    DMA1_Stream5_IRQHandler
    DMA1_Stream6_IRQHandler
    DMA1_Stream7_IRQHandler
    DMA2_Stream0_IRQHandler
    DMA2_Stream1_IRQHandler
    DMA2_Stream2_IRQHandler
    DMA2_Stream3_IRQHandler
    DMA2_Stream4_IRQHandler
    DMA2_Stream5_IRQHandler
    DMA2_Stream6_IRQHandler
    DMA2_Stream7_IRQHandler
    EXTI0_IRQHandler
    EXTI15_10_IRQHandler
    EXTI1_IRQHandler
    EXTI2_IRQHandler
    EXTI3_IRQHandler
    EXTI4_IRQHandler
    EXTI9_5_IRQHandler
    FLASH_IRQHandler
    FPU_IRQHandler
    I2C1_ER_IRQHandler
    I2C1_EV_IRQHandler
    I2C2_ER_IRQHandler
    I2C2_EV_IRQHandler
    I2C3_ER_IRQHandler
    I2C3_EV_IRQHandler
    OTG_FS_IRQHandler
    OTG_FS_WKUP_IRQHandler
    PVD_IRQHandler
    RCC_IRQHandler
    RTC_Alarm_IRQHandler
    RTC_WKUP_IRQHandler
    SDIO_IRQHandler
    SPI1_IRQHandler
    SPI2_IRQHandler
    SPI3_IRQHandler
    SPI4_IRQHandler
    TAMP_STAMP_IRQHandler
    TIM1_BRK_TIM9_IRQHandler
    TIM1_CC_IRQHandler
    TIM1_TRG_COM_TIM11_IRQHandler
    TIM1_UP_TIM10_IRQHandler
    USART1_IRQHandler
    USART2_IRQHandler
    USART6_IRQHandler
    WWDG_IRQHandler
        0x080001c2:    e7fe        ..      B        ADC_IRQHandler ; 0x80001c2
    $d
        0x080001c4:    08000369    i...    DCD    134218601
        0x080001c8:    08000195    ....    DCD    134218133
    $t
    .text
    __scatterload
    __scatterload_rt2
        0x080001cc:    4c06        .L      LDR      r4,[pc,#24] ; [0x80001e8] = 0x8000d48
        0x080001ce:    4d07        .M      LDR      r5,[pc,#28] ; [0x80001ec] = 0x8000d68
        0x080001d0:    e006        ..      B        0x80001e0 ; __scatterload + 20
        0x080001d2:    68e0        .h      LDR      r0,[r4,#0xc]
        0x080001d4:    f0400301    @...    ORR      r3,r0,#1
        0x080001d8:    e8940007    ....    LDM      r4,{r0-r2}
        0x080001dc:    4798        .G      BLX      r3
        0x080001de:    3410        .4      ADDS     r4,r4,#0x10
        0x080001e0:    42ac        .B      CMP      r4,r5
        0x080001e2:    d3f6        ..      BCC      0x80001d2 ; __scatterload + 6
        0x080001e4:    f7ffffda    ....    BL       __main_after_scatterload ; 0x800019c
    $d
        0x080001e8:    08000d48    H...    DCD    134221128
        0x080001ec:    08000d68    h...    DCD    134221160
    $t
    i.BusFault_Handler
    BusFault_Handler
        0x080001f0:    bf00        ..      NOP      
        0x080001f2:    e7fe        ..      B        0x80001f2 ; BusFault_Handler + 2
    i.DebugMon_Handler
    DebugMon_Handler
        0x080001f4:    4770        pG      BX       lr
    i.HardFault_Handler
    HardFault_Handler
        0x080001f6:    bf00        ..      NOP      
        0x080001f8:    e7fe        ..      B        0x80001f8 ; HardFault_Handler + 2
    i.MemManage_Handler
    MemManage_Handler
        0x080001fa:    bf00        ..      NOP      
        0x080001fc:    e7fe        ..      B        0x80001fc ; MemManage_Handler + 2
    i.NMI_Handler
    NMI_Handler
        0x080001fe:    4770        pG      BX       lr
    i.NVIC_Init
    NVIC_Init
        0x08000200:    b570        p.      PUSH     {r4-r6,lr}
        0x08000202:    2100        .!      MOVS     r1,#0
        0x08000204:    2300        .#      MOVS     r3,#0
        0x08000206:    220f        ."      MOVS     r2,#0xf
        0x08000208:    78c4        .x      LDRB     r4,[r0,#3]
        0x0800020a:    b31c        ..      CBZ      r4,0x8000254 ; NVIC_Init + 84
        0x0800020c:    4c17        .L      LDR      r4,[pc,#92] ; [0x800026c] = 0xe000ed0c
        0x0800020e:    6824        $h      LDR      r4,[r4,#0]
        0x08000210:    f40464e0    ...d    AND      r4,r4,#0x700
        0x08000214:    f5c464e0    ...d    RSB      r4,r4,#0x700
        0x08000218:    f3c42107    ...!    UBFX     r1,r4,#8,#8
        0x0800021c:    f1c10404    ....    RSB      r4,r1,#4
        0x08000220:    b2e3        ..      UXTB     r3,r4
        0x08000222:    410a        .A      ASRS     r2,r2,r1
        0x08000224:    7844        Dx      LDRB     r4,[r0,#1]
        0x08000226:    409c        .@      LSLS     r4,r4,r3
        0x08000228:    b2e1        ..      UXTB     r1,r4
        0x0800022a:    7884        .x      LDRB     r4,[r0,#2]
        0x0800022c:    4014        .@      ANDS     r4,r4,r2
        0x0800022e:    4321        !C      ORRS     r1,r1,r4
        0x08000230:    070c        ..      LSLS     r4,r1,#28
        0x08000232:    0e21        !.      LSRS     r1,r4,#24
        0x08000234:    4c0e        .L      LDR      r4,[pc,#56] ; [0x8000270] = 0xe000e400
        0x08000236:    7805        .x      LDRB     r5,[r0,#0]
        0x08000238:    5561        aU      STRB     r1,[r4,r5]
        0x0800023a:    7804        .x      LDRB     r4,[r0,#0]
        0x0800023c:    f004051f    ....    AND      r5,r4,#0x1f
        0x08000240:    2401        .$      MOVS     r4,#1
        0x08000242:    40ac        .@      LSLS     r4,r4,r5
        0x08000244:    7805        .x      LDRB     r5,[r0,#0]
        0x08000246:    116d        m.      ASRS     r5,r5,#5
        0x08000248:    00ad        ..      LSLS     r5,r5,#2
        0x0800024a:    f10525e0    ...%    ADD      r5,r5,#0xe000e000
        0x0800024e:    f8c54100    ...A    STR      r4,[r5,#0x100]
        0x08000252:    e009        ..      B        0x8000268 ; NVIC_Init + 104
        0x08000254:    7804        .x      LDRB     r4,[r0,#0]
        0x08000256:    f004051f    ....    AND      r5,r4,#0x1f
        0x0800025a:    2401        .$      MOVS     r4,#1
        0x0800025c:    40ac        .@      LSLS     r4,r4,r5
        0x0800025e:    4d05        .M      LDR      r5,[pc,#20] ; [0x8000274] = 0xe000e180
        0x08000260:    7806        .x      LDRB     r6,[r0,#0]
        0x08000262:    1176        v.      ASRS     r6,r6,#5
        0x08000264:    f8454026    E.&@    STR      r4,[r5,r6,LSL #2]
        0x08000268:    bd70        p.      POP      {r4-r6,pc}
    $d
        0x0800026a:    0000        ..      DCW    0
        0x0800026c:    e000ed0c    ....    DCD    3758157068
        0x08000270:    e000e400    ....    DCD    3758154752
        0x08000274:    e000e180    ....    DCD    3758154112
    $t
    i.PendSV_Handler
    PendSV_Handler
        0x08000278:    4770        pG      BX       lr
    i.SVC_Handler
    SVC_Handler
        0x0800027a:    4770        pG      BX       lr
    i.SetSysClock
    SetSysClock
        0x0800027c:    b50c        ..      PUSH     {r2,r3,lr}
        0x0800027e:    2000        .       MOVS     r0,#0
        0x08000280:    9001        ..      STR      r0,[sp,#4]
        0x08000282:    9000        ..      STR      r0,[sp,#0]
        0x08000284:    4833        3H      LDR      r0,[pc,#204] ; [0x8000354] = 0x40023800
        0x08000286:    6800        .h      LDR      r0,[r0,#0]
        0x08000288:    f4403080    @..0    ORR      r0,r0,#0x10000
        0x0800028c:    4931        1I      LDR      r1,[pc,#196] ; [0x8000354] = 0x40023800
        0x0800028e:    6008        .`      STR      r0,[r1,#0]
        0x08000290:    bf00        ..      NOP      
        0x08000292:    4830        0H      LDR      r0,[pc,#192] ; [0x8000354] = 0x40023800
        0x08000294:    6800        .h      LDR      r0,[r0,#0]
        0x08000296:    f4003000    ...0    AND      r0,r0,#0x20000
        0x0800029a:    9000        ..      STR      r0,[sp,#0]
        0x0800029c:    9801        ..      LDR      r0,[sp,#4]
        0x0800029e:    1c40        @.      ADDS     r0,r0,#1
        0x080002a0:    9001        ..      STR      r0,[sp,#4]
        0x080002a2:    9800        ..      LDR      r0,[sp,#0]
        0x080002a4:    b918        ..      CBNZ     r0,0x80002ae ; SetSysClock + 50
        0x080002a6:    9801        ..      LDR      r0,[sp,#4]
        0x080002a8:    f5b04fa0    ...O    CMP      r0,#0x5000
        0x080002ac:    d1f1        ..      BNE      0x8000292 ; SetSysClock + 22
        0x080002ae:    4829        )H      LDR      r0,[pc,#164] ; [0x8000354] = 0x40023800
        0x080002b0:    6800        .h      LDR      r0,[r0,#0]
        0x080002b2:    f4003000    ...0    AND      r0,r0,#0x20000
        0x080002b6:    b110        ..      CBZ      r0,0x80002be ; SetSysClock + 66
        0x080002b8:    2001        .       MOVS     r0,#1
        0x080002ba:    9000        ..      STR      r0,[sp,#0]
        0x080002bc:    e001        ..      B        0x80002c2 ; SetSysClock + 70
        0x080002be:    2000        .       MOVS     r0,#0
        0x080002c0:    9000        ..      STR      r0,[sp,#0]
        0x080002c2:    9800        ..      LDR      r0,[sp,#0]
        0x080002c4:    2801        .(      CMP      r0,#1
        0x080002c6:    d144        D.      BNE      0x8000352 ; SetSysClock + 214
        0x080002c8:    4822        "H      LDR      r0,[pc,#136] ; [0x8000354] = 0x40023800
        0x080002ca:    3040        @0      ADDS     r0,r0,#0x40
        0x080002cc:    6800        .h      LDR      r0,[r0,#0]
        0x080002ce:    f0405080    @..P    ORR      r0,r0,#0x10000000
        0x080002d2:    4920         I      LDR      r1,[pc,#128] ; [0x8000354] = 0x40023800
        0x080002d4:    3140        @1      ADDS     r1,r1,#0x40
        0x080002d6:    6008        .`      STR      r0,[r1,#0]
        0x080002d8:    481f        .H      LDR      r0,[pc,#124] ; [0x8000358] = 0x40007000
        0x080002da:    6800        .h      LDR      r0,[r0,#0]
        0x080002dc:    f4404040    @.@@    ORR      r0,r0,#0xc000
        0x080002e0:    491d        .I      LDR      r1,[pc,#116] ; [0x8000358] = 0x40007000
        0x080002e2:    6008        .`      STR      r0,[r1,#0]
        0x080002e4:    481b        .H      LDR      r0,[pc,#108] ; [0x8000354] = 0x40023800
        0x080002e6:    3008        .0      ADDS     r0,r0,#8
        0x080002e8:    6800        .h      LDR      r0,[r0,#0]
        0x080002ea:    491a        .I      LDR      r1,[pc,#104] ; [0x8000354] = 0x40023800
        0x080002ec:    3108        .1      ADDS     r1,r1,#8
        0x080002ee:    6008        .`      STR      r0,[r1,#0]
        0x080002f0:    4608        .F      MOV      r0,r1
        0x080002f2:    6800        .h      LDR      r0,[r0,#0]
        0x080002f4:    6008        .`      STR      r0,[r1,#0]
        0x080002f6:    4608        .F      MOV      r0,r1
        0x080002f8:    6800        .h      LDR      r0,[r0,#0]
        0x080002fa:    f4405080    @..P    ORR      r0,r0,#0x1000
        0x080002fe:    6008        .`      STR      r0,[r1,#0]
        0x08000300:    4816        .H      LDR      r0,[pc,#88] ; [0x800035c] = 0x7415408
        0x08000302:    1f09        ..      SUBS     r1,r1,#4
        0x08000304:    6008        .`      STR      r0,[r1,#0]
        0x08000306:    1f08        ..      SUBS     r0,r1,#4
        0x08000308:    6800        .h      LDR      r0,[r0,#0]
        0x0800030a:    f0407080    @..p    ORR      r0,r0,#0x1000000
        0x0800030e:    1f09        ..      SUBS     r1,r1,#4
        0x08000310:    6008        .`      STR      r0,[r1,#0]
        0x08000312:    bf00        ..      NOP      
        0x08000314:    480f        .H      LDR      r0,[pc,#60] ; [0x8000354] = 0x40023800
        0x08000316:    6800        .h      LDR      r0,[r0,#0]
        0x08000318:    f0007000    ...p    AND      r0,r0,#0x2000000
        0x0800031c:    2800        .(      CMP      r0,#0
        0x0800031e:    d0f9        ..      BEQ      0x8000314 ; SetSysClock + 152
        0x08000320:    f2407002    @..p    MOV      r0,#0x702
        0x08000324:    490e        .I      LDR      r1,[pc,#56] ; [0x8000360] = 0x40023c00
        0x08000326:    6008        .`      STR      r0,[r1,#0]
        0x08000328:    480a        .H      LDR      r0,[pc,#40] ; [0x8000354] = 0x40023800
        0x0800032a:    3008        .0      ADDS     r0,r0,#8
        0x0800032c:    6800        .h      LDR      r0,[r0,#0]
        0x0800032e:    f0200003     ...    BIC      r0,r0,#3
        0x08000332:    4908        .I      LDR      r1,[pc,#32] ; [0x8000354] = 0x40023800
        0x08000334:    3108        .1      ADDS     r1,r1,#8
        0x08000336:    6008        .`      STR      r0,[r1,#0]
        0x08000338:    4608        .F      MOV      r0,r1
        0x0800033a:    6800        .h      LDR      r0,[r0,#0]
        0x0800033c:    f0400002    @...    ORR      r0,r0,#2
        0x08000340:    6008        .`      STR      r0,[r1,#0]
        0x08000342:    bf00        ..      NOP      
        0x08000344:    4803        .H      LDR      r0,[pc,#12] ; [0x8000354] = 0x40023800
        0x08000346:    3008        .0      ADDS     r0,r0,#8
        0x08000348:    6800        .h      LDR      r0,[r0,#0]
        0x0800034a:    f000000c    ....    AND      r0,r0,#0xc
        0x0800034e:    2808        .(      CMP      r0,#8
        0x08000350:    d1f8        ..      BNE      0x8000344 ; SetSysClock + 200
        0x08000352:    bd0c        ..      POP      {r2,r3,pc}
    $d
        0x08000354:    40023800    .8.@    DCD    1073887232
        0x08000358:    40007000    .p.@    DCD    1073770496
        0x0800035c:    07415408    .TA.    DCD    121721864
        0x08000360:    40023c00    .<.@    DCD    1073888256
    $t
    i.SysTick_Handler
    SysTick_Handler
        0x08000364:    4770        pG      BX       lr
        0x08000366:    0000        ..      MOVS     r0,r0
    i.SystemInit
    SystemInit
        0x08000368:    b510        ..      PUSH     {r4,lr}
        0x0800036a:    4815        .H      LDR      r0,[pc,#84] ; [0x80003c0] = 0xe000ed88
        0x0800036c:    6800        .h      LDR      r0,[r0,#0]
        0x0800036e:    f4400070    @.p.    ORR      r0,r0,#0xf00000
        0x08000372:    4913        .I      LDR      r1,[pc,#76] ; [0x80003c0] = 0xe000ed88
        0x08000374:    6008        .`      STR      r0,[r1,#0]
        0x08000376:    4813        .H      LDR      r0,[pc,#76] ; [0x80003c4] = 0x40023800
        0x08000378:    6800        .h      LDR      r0,[r0,#0]
        0x0800037a:    f0400001    @...    ORR      r0,r0,#1
        0x0800037e:    4911        .I      LDR      r1,[pc,#68] ; [0x80003c4] = 0x40023800
        0x08000380:    6008        .`      STR      r0,[r1,#0]
        0x08000382:    2000        .       MOVS     r0,#0
        0x08000384:    490f        .I      LDR      r1,[pc,#60] ; [0x80003c4] = 0x40023800
        0x08000386:    3108        .1      ADDS     r1,r1,#8
        0x08000388:    6008        .`      STR      r0,[r1,#0]
        0x0800038a:    480e        .H      LDR      r0,[pc,#56] ; [0x80003c4] = 0x40023800
        0x0800038c:    6800        .h      LDR      r0,[r0,#0]
        0x0800038e:    490e        .I      LDR      r1,[pc,#56] ; [0x80003c8] = 0xfef6ffff
        0x08000390:    4008        .@      ANDS     r0,r0,r1
        0x08000392:    490c        .I      LDR      r1,[pc,#48] ; [0x80003c4] = 0x40023800
        0x08000394:    6008        .`      STR      r0,[r1,#0]
        0x08000396:    480d        .H      LDR      r0,[pc,#52] ; [0x80003cc] = 0x24003010
        0x08000398:    1d09        ..      ADDS     r1,r1,#4
        0x0800039a:    6008        .`      STR      r0,[r1,#0]
        0x0800039c:    1f08        ..      SUBS     r0,r1,#4
        0x0800039e:    6800        .h      LDR      r0,[r0,#0]
        0x080003a0:    f4202080     ..     BIC      r0,r0,#0x40000
        0x080003a4:    1f09        ..      SUBS     r1,r1,#4
        0x080003a6:    6008        .`      STR      r0,[r1,#0]
        0x080003a8:    2000        .       MOVS     r0,#0
        0x080003aa:    4906        .I      LDR      r1,[pc,#24] ; [0x80003c4] = 0x40023800
        0x080003ac:    310c        .1      ADDS     r1,r1,#0xc
        0x080003ae:    6008        .`      STR      r0,[r1,#0]
        0x080003b0:    f7ffff64    ..d.    BL       SetSysClock ; 0x800027c
        0x080003b4:    f04f6000    O..`    MOV      r0,#0x8000000
        0x080003b8:    4901        .I      LDR      r1,[pc,#4] ; [0x80003c0] = 0xe000ed88
        0x080003ba:    3980        .9      SUBS     r1,r1,#0x80
        0x080003bc:    6008        .`      STR      r0,[r1,#0]
        0x080003be:    bd10        ..      POP      {r4,pc}
    $d
        0x080003c0:    e000ed88    ....    DCD    3758157192
        0x080003c4:    40023800    .8.@    DCD    1073887232
        0x080003c8:    fef6ffff    ....    DCD    4277600255
        0x080003cc:    24003010    .0.$    DCD    603992080
    $t
    i.TIM2_IRQHandler
    TIM2_IRQHandler
        0x080003d0:    b510        ..      PUSH     {r4,lr}
        0x080003d2:    2000        .       MOVS     r0,#0
        0x080003d4:    f04f4180    O..A    MOV      r1,#0x40000000
        0x080003d8:    8288        ..      STRH     r0,[r1,#0x14]
        0x080003da:    4608        .F      MOV      r0,r1
        0x080003dc:    8a00        ..      LDRH     r0,[r0,#0x10]
        0x080003de:    b168        h.      CBZ      r0,0x80003fc ; TIM2_IRQHandler + 44
        0x080003e0:    bf00        ..      NOP      
        0x080003e2:    4608        .F      MOV      r0,r1
        0x080003e4:    8a00        ..      LDRH     r0,[r0,#0x10]
        0x080003e6:    f0200001     ...    BIC      r0,r0,#1
        0x080003ea:    8208        ..      STRH     r0,[r1,#0x10]
        0x080003ec:    4608        .F      MOV      r0,r1
        0x080003ee:    8980        ..      LDRH     r0,[r0,#0xc]
        0x080003f0:    f0200001     ...    BIC      r0,r0,#1
        0x080003f4:    8188        ..      STRH     r0,[r1,#0xc]
        0x080003f6:    a036        6.      ADR      r0,{pc}+0xda ; 0x80004d0
        0x080003f8:    f000fbea    ....    BL       __0printf$bare ; 0x8000bd0
        0x080003fc:    f04f4080    O..@    MOV      r0,#0x40000000
        0x08000400:    8a00        ..      LDRH     r0,[r0,#0x10]
        0x08000402:    b180        ..      CBZ      r0,0x8000426 ; TIM2_IRQHandler + 86
        0x08000404:    bf00        ..      NOP      
        0x08000406:    f04f4080    O..@    MOV      r0,#0x40000000
        0x0800040a:    8a00        ..      LDRH     r0,[r0,#0x10]
        0x0800040c:    f0200002     ...    BIC      r0,r0,#2
        0x08000410:    f04f4180    O..A    MOV      r1,#0x40000000
        0x08000414:    8208        ..      STRH     r0,[r1,#0x10]
        0x08000416:    4608        .F      MOV      r0,r1
        0x08000418:    8980        ..      LDRH     r0,[r0,#0xc]
        0x0800041a:    f0200002     ...    BIC      r0,r0,#2
        0x0800041e:    8188        ..      STRH     r0,[r1,#0xc]
        0x08000420:    a030        0.      ADR      r0,{pc}+0xc4 ; 0x80004e4
        0x08000422:    f000fbd5    ....    BL       __0printf$bare ; 0x8000bd0
        0x08000426:    f04f4080    O..@    MOV      r0,#0x40000000
        0x0800042a:    8a00        ..      LDRH     r0,[r0,#0x10]
        0x0800042c:    b180        ..      CBZ      r0,0x8000450 ; TIM2_IRQHandler + 128
        0x0800042e:    bf00        ..      NOP      
        0x08000430:    f04f4080    O..@    MOV      r0,#0x40000000
        0x08000434:    8a00        ..      LDRH     r0,[r0,#0x10]
        0x08000436:    f0200004     ...    BIC      r0,r0,#4
        0x0800043a:    f04f4180    O..A    MOV      r1,#0x40000000
        0x0800043e:    8208        ..      STRH     r0,[r1,#0x10]
        0x08000440:    4608        .F      MOV      r0,r1
        0x08000442:    8980        ..      LDRH     r0,[r0,#0xc]
        0x08000444:    f0200004     ...    BIC      r0,r0,#4
        0x08000448:    8188        ..      STRH     r0,[r1,#0xc]
        0x0800044a:    a02a        *.      ADR      r0,{pc}+0xaa ; 0x80004f4
        0x0800044c:    f000fbc0    ....    BL       __0printf$bare ; 0x8000bd0
        0x08000450:    f04f4080    O..@    MOV      r0,#0x40000000
        0x08000454:    8a00        ..      LDRH     r0,[r0,#0x10]
        0x08000456:    b180        ..      CBZ      r0,0x800047a ; TIM2_IRQHandler + 170
        0x08000458:    bf00        ..      NOP      
        0x0800045a:    f04f4080    O..@    MOV      r0,#0x40000000
        0x0800045e:    8a00        ..      LDRH     r0,[r0,#0x10]
        0x08000460:    f0200008     ...    BIC      r0,r0,#8
        0x08000464:    f04f4180    O..A    MOV      r1,#0x40000000
        0x08000468:    8208        ..      STRH     r0,[r1,#0x10]
        0x0800046a:    4608        .F      MOV      r0,r1
        0x0800046c:    8980        ..      LDRH     r0,[r0,#0xc]
        0x0800046e:    f0200008     ...    BIC      r0,r0,#8
        0x08000472:    8188        ..      STRH     r0,[r1,#0xc]
        0x08000474:    a023        #.      ADR      r0,{pc}+0x90 ; 0x8000504
        0x08000476:    f000fbab    ....    BL       __0printf$bare ; 0x8000bd0
        0x0800047a:    f04f4080    O..@    MOV      r0,#0x40000000
        0x0800047e:    8a00        ..      LDRH     r0,[r0,#0x10]
        0x08000480:    b180        ..      CBZ      r0,0x80004a4 ; TIM2_IRQHandler + 212
        0x08000482:    bf00        ..      NOP      
        0x08000484:    f04f4080    O..@    MOV      r0,#0x40000000
        0x08000488:    8a00        ..      LDRH     r0,[r0,#0x10]
        0x0800048a:    f0200010     ...    BIC      r0,r0,#0x10
        0x0800048e:    f04f4180    O..A    MOV      r1,#0x40000000
        0x08000492:    8208        ..      STRH     r0,[r1,#0x10]
        0x08000494:    4608        .F      MOV      r0,r1
        0x08000496:    8980        ..      LDRH     r0,[r0,#0xc]
        0x08000498:    f0200010     ...    BIC      r0,r0,#0x10
        0x0800049c:    8188        ..      STRH     r0,[r1,#0xc]
        0x0800049e:    a01d        ..      ADR      r0,{pc}+0x76 ; 0x8000514
        0x080004a0:    f000fb96    ....    BL       __0printf$bare ; 0x8000bd0
        0x080004a4:    f04f4080    O..@    MOV      r0,#0x40000000
        0x080004a8:    8a00        ..      LDRH     r0,[r0,#0x10]
        0x080004aa:    b180        ..      CBZ      r0,0x80004ce ; TIM2_IRQHandler + 254
        0x080004ac:    bf00        ..      NOP      
        0x080004ae:    f04f4080    O..@    MOV      r0,#0x40000000
        0x080004b2:    8a00        ..      LDRH     r0,[r0,#0x10]
        0x080004b4:    f0200040     .@.    BIC      r0,r0,#0x40
        0x080004b8:    f04f4180    O..A    MOV      r1,#0x40000000
        0x080004bc:    8208        ..      STRH     r0,[r1,#0x10]
        0x080004be:    4608        .F      MOV      r0,r1
        0x080004c0:    8980        ..      LDRH     r0,[r0,#0xc]
        0x080004c2:    f0200040     .@.    BIC      r0,r0,#0x40
        0x080004c6:    8188        ..      STRH     r0,[r1,#0xc]
        0x080004c8:    a016        ..      ADR      r0,{pc}+0x5c ; 0x8000524
        0x080004ca:    f000fb81    ....    BL       __0printf$bare ; 0x8000bd0
        0x080004ce:    bd10        ..      POP      {r4,pc}
    $d
        0x080004d0:    324d4954    TIM2    DCD    843925844
        0x080004d4:    64707520     upd    DCD    1685091616
        0x080004d8:    20617461    ata     DCD    543257697
        0x080004dc:    6e65706f    open    DCD    1852141679
        0x080004e0:    00000a0d    ....    DCD    2573
        0x080004e4:    324d4954    TIM2    DCD    843925844
        0x080004e8:    31434320     CC1    DCD    826491680
        0x080004ec:    65706f20     ope    DCD    1701867296
        0x080004f0:    000a0d6e    n...    DCD    658798
        0x080004f4:    324d4954    TIM2    DCD    843925844
        0x080004f8:    32434320     CC2    DCD    843268896
        0x080004fc:    65706f20     ope    DCD    1701867296
        0x08000500:    000a0d6e    n...    DCD    658798
        0x08000504:    324d4954    TIM2    DCD    843925844
        0x08000508:    33434320     CC3    DCD    860046112
        0x0800050c:    65706f20     ope    DCD    1701867296
        0x08000510:    000a0d6e    n...    DCD    658798
        0x08000514:    324d4954    TIM2    DCD    843925844
        0x08000518:    34434320     CC4    DCD    876823328
        0x0800051c:    65706f20     ope    DCD    1701867296
        0x08000520:    000a0d6e    n...    DCD    658798
        0x08000524:    324d4954    TIM2    DCD    843925844
        0x08000528:    69727420     tri    DCD    1769108512
        0x0800052c:    706f2067    g op    DCD    1886330983
        0x08000530:    0a0d6e65    en..    DCD    168652389
        0x08000534:    00000000    ....    DCD    0
    $t
    i.TIM3_IRQHandler
    TIM3_IRQHandler
        0x08000538:    b510        ..      PUSH     {r4,lr}
        0x0800053a:    2000        .       MOVS     r0,#0
        0x0800053c:    4941        AI      LDR      r1,[pc,#260] ; [0x8000644] = 0x40000414
        0x0800053e:    8008        ..      STRH     r0,[r1,#0]
        0x08000540:    1f08        ..      SUBS     r0,r1,#4
        0x08000542:    8800        ..      LDRH     r0,[r0,#0]
        0x08000544:    b178        x.      CBZ      r0,0x8000566 ; TIM3_IRQHandler + 46
        0x08000546:    bf00        ..      NOP      
        0x08000548:    1f08        ..      SUBS     r0,r1,#4
        0x0800054a:    8800        ..      LDRH     r0,[r0,#0]
        0x0800054c:    f0200001     ...    BIC      r0,r0,#1
        0x08000550:    1f09        ..      SUBS     r1,r1,#4
        0x08000552:    8008        ..      STRH     r0,[r1,#0]
        0x08000554:    1f08        ..      SUBS     r0,r1,#4
        0x08000556:    8800        ..      LDRH     r0,[r0,#0]
        0x08000558:    f0200001     ...    BIC      r0,r0,#1
        0x0800055c:    1f09        ..      SUBS     r1,r1,#4
        0x0800055e:    8008        ..      STRH     r0,[r1,#0]
        0x08000560:    a039        9.      ADR      r0,{pc}+0xe8 ; 0x8000648
        0x08000562:    f000fb35    ..5.    BL       __0printf$bare ; 0x8000bd0
        0x08000566:    4837        7H      LDR      r0,[pc,#220] ; [0x8000644] = 0x40000414
        0x08000568:    1f00        ..      SUBS     r0,r0,#4
        0x0800056a:    8800        ..      LDRH     r0,[r0,#0]
        0x0800056c:    b188        ..      CBZ      r0,0x8000592 ; TIM3_IRQHandler + 90
        0x0800056e:    bf00        ..      NOP      
        0x08000570:    4834        4H      LDR      r0,[pc,#208] ; [0x8000644] = 0x40000414
        0x08000572:    1f00        ..      SUBS     r0,r0,#4
        0x08000574:    8800        ..      LDRH     r0,[r0,#0]
        0x08000576:    f0200002     ...    BIC      r0,r0,#2
        0x0800057a:    4932        2I      LDR      r1,[pc,#200] ; [0x8000644] = 0x40000414
        0x0800057c:    1f09        ..      SUBS     r1,r1,#4
        0x0800057e:    8008        ..      STRH     r0,[r1,#0]
        0x08000580:    1f08        ..      SUBS     r0,r1,#4
        0x08000582:    8800        ..      LDRH     r0,[r0,#0]
        0x08000584:    f0200002     ...    BIC      r0,r0,#2
        0x08000588:    1f09        ..      SUBS     r1,r1,#4
        0x0800058a:    8008        ..      STRH     r0,[r1,#0]
        0x0800058c:    a033        3.      ADR      r0,{pc}+0xd0 ; 0x800065c
        0x0800058e:    f000fb1f    ....    BL       __0printf$bare ; 0x8000bd0
        0x08000592:    482c        ,H      LDR      r0,[pc,#176] ; [0x8000644] = 0x40000414
        0x08000594:    1f00        ..      SUBS     r0,r0,#4
        0x08000596:    8800        ..      LDRH     r0,[r0,#0]
        0x08000598:    b188        ..      CBZ      r0,0x80005be ; TIM3_IRQHandler + 134
        0x0800059a:    bf00        ..      NOP      
        0x0800059c:    4829        )H      LDR      r0,[pc,#164] ; [0x8000644] = 0x40000414
        0x0800059e:    1f00        ..      SUBS     r0,r0,#4
        0x080005a0:    8800        ..      LDRH     r0,[r0,#0]
        0x080005a2:    f0200004     ...    BIC      r0,r0,#4
        0x080005a6:    4927        'I      LDR      r1,[pc,#156] ; [0x8000644] = 0x40000414
        0x080005a8:    1f09        ..      SUBS     r1,r1,#4
        0x080005aa:    8008        ..      STRH     r0,[r1,#0]
        0x080005ac:    1f08        ..      SUBS     r0,r1,#4
        0x080005ae:    8800        ..      LDRH     r0,[r0,#0]
        0x080005b0:    f0200004     ...    BIC      r0,r0,#4
        0x080005b4:    1f09        ..      SUBS     r1,r1,#4
        0x080005b6:    8008        ..      STRH     r0,[r1,#0]
        0x080005b8:    a02c        ,.      ADR      r0,{pc}+0xb4 ; 0x800066c
        0x080005ba:    f000fb09    ....    BL       __0printf$bare ; 0x8000bd0
        0x080005be:    4821        !H      LDR      r0,[pc,#132] ; [0x8000644] = 0x40000414
        0x080005c0:    1f00        ..      SUBS     r0,r0,#4
        0x080005c2:    8800        ..      LDRH     r0,[r0,#0]
        0x080005c4:    b188        ..      CBZ      r0,0x80005ea ; TIM3_IRQHandler + 178
        0x080005c6:    bf00        ..      NOP      
        0x080005c8:    481e        .H      LDR      r0,[pc,#120] ; [0x8000644] = 0x40000414
        0x080005ca:    1f00        ..      SUBS     r0,r0,#4
        0x080005cc:    8800        ..      LDRH     r0,[r0,#0]
        0x080005ce:    f0200008     ...    BIC      r0,r0,#8
        0x080005d2:    491c        .I      LDR      r1,[pc,#112] ; [0x8000644] = 0x40000414
        0x080005d4:    1f09        ..      SUBS     r1,r1,#4
        0x080005d6:    8008        ..      STRH     r0,[r1,#0]
        0x080005d8:    1f08        ..      SUBS     r0,r1,#4
        0x080005da:    8800        ..      LDRH     r0,[r0,#0]
        0x080005dc:    f0200008     ...    BIC      r0,r0,#8
        0x080005e0:    1f09        ..      SUBS     r1,r1,#4
        0x080005e2:    8008        ..      STRH     r0,[r1,#0]
        0x080005e4:    a025        %.      ADR      r0,{pc}+0x98 ; 0x800067c
        0x080005e6:    f000faf3    ....    BL       __0printf$bare ; 0x8000bd0
        0x080005ea:    4816        .H      LDR      r0,[pc,#88] ; [0x8000644] = 0x40000414
        0x080005ec:    1f00        ..      SUBS     r0,r0,#4
        0x080005ee:    8800        ..      LDRH     r0,[r0,#0]
        0x080005f0:    b188        ..      CBZ      r0,0x8000616 ; TIM3_IRQHandler + 222
        0x080005f2:    bf00        ..      NOP      
        0x080005f4:    4813        .H      LDR      r0,[pc,#76] ; [0x8000644] = 0x40000414
        0x080005f6:    1f00        ..      SUBS     r0,r0,#4
        0x080005f8:    8800        ..      LDRH     r0,[r0,#0]
        0x080005fa:    f0200010     ...    BIC      r0,r0,#0x10
        0x080005fe:    4911        .I      LDR      r1,[pc,#68] ; [0x8000644] = 0x40000414
        0x08000600:    1f09        ..      SUBS     r1,r1,#4
        0x08000602:    8008        ..      STRH     r0,[r1,#0]
        0x08000604:    1f08        ..      SUBS     r0,r1,#4
        0x08000606:    8800        ..      LDRH     r0,[r0,#0]
        0x08000608:    f0200010     ...    BIC      r0,r0,#0x10
        0x0800060c:    1f09        ..      SUBS     r1,r1,#4
        0x0800060e:    8008        ..      STRH     r0,[r1,#0]
        0x08000610:    a01e        ..      ADR      r0,{pc}+0x7c ; 0x800068c
        0x08000612:    f000fadd    ....    BL       __0printf$bare ; 0x8000bd0
        0x08000616:    480b        .H      LDR      r0,[pc,#44] ; [0x8000644] = 0x40000414
        0x08000618:    1f00        ..      SUBS     r0,r0,#4
        0x0800061a:    8800        ..      LDRH     r0,[r0,#0]
        0x0800061c:    b188        ..      CBZ      r0,0x8000642 ; TIM3_IRQHandler + 266
        0x0800061e:    bf00        ..      NOP      
        0x08000620:    4808        .H      LDR      r0,[pc,#32] ; [0x8000644] = 0x40000414
        0x08000622:    1f00        ..      SUBS     r0,r0,#4
        0x08000624:    8800        ..      LDRH     r0,[r0,#0]
        0x08000626:    f0200040     .@.    BIC      r0,r0,#0x40
        0x0800062a:    4906        .I      LDR      r1,[pc,#24] ; [0x8000644] = 0x40000414
        0x0800062c:    1f09        ..      SUBS     r1,r1,#4
        0x0800062e:    8008        ..      STRH     r0,[r1,#0]
        0x08000630:    1f08        ..      SUBS     r0,r1,#4
        0x08000632:    8800        ..      LDRH     r0,[r0,#0]
        0x08000634:    f0200040     .@.    BIC      r0,r0,#0x40
        0x08000638:    1f09        ..      SUBS     r1,r1,#4
        0x0800063a:    8008        ..      STRH     r0,[r1,#0]
        0x0800063c:    a017        ..      ADR      r0,{pc}+0x60 ; 0x800069c
        0x0800063e:    f000fac7    ....    BL       __0printf$bare ; 0x8000bd0
        0x08000642:    bd10        ..      POP      {r4,pc}
    $d
        0x08000644:    40000414    ...@    DCD    1073742868
        0x08000648:    334d4954    TIM3    DCD    860703060
        0x0800064c:    64707520     upd    DCD    1685091616
        0x08000650:    20617461    ata     DCD    543257697
        0x08000654:    6e65706f    open    DCD    1852141679
        0x08000658:    00000a0d    ....    DCD    2573
        0x0800065c:    334d4954    TIM3    DCD    860703060
        0x08000660:    31434320     CC1    DCD    826491680
        0x08000664:    65706f20     ope    DCD    1701867296
        0x08000668:    000a0d6e    n...    DCD    658798
        0x0800066c:    334d4954    TIM3    DCD    860703060
        0x08000670:    32434320     CC2    DCD    843268896
        0x08000674:    65706f20     ope    DCD    1701867296
        0x08000678:    000a0d6e    n...    DCD    658798
        0x0800067c:    334d4954    TIM3    DCD    860703060
        0x08000680:    33434320     CC3    DCD    860046112
        0x08000684:    65706f20     ope    DCD    1701867296
        0x08000688:    000a0d6e    n...    DCD    658798
        0x0800068c:    334d4954    TIM3    DCD    860703060
        0x08000690:    34434320     CC4    DCD    876823328
        0x08000694:    65706f20     ope    DCD    1701867296
        0x08000698:    000a0d6e    n...    DCD    658798
        0x0800069c:    334d4954    TIM3    DCD    860703060
        0x080006a0:    69727420     tri    DCD    1769108512
        0x080006a4:    706f2067    g op    DCD    1886330983
        0x080006a8:    0a0d6e65    en..    DCD    168652389
        0x080006ac:    00000000    ....    DCD    0
    $t
    i.TIM4_IRQHandler
    TIM4_IRQHandler
        0x080006b0:    b510        ..      PUSH     {r4,lr}
        0x080006b2:    2000        .       MOVS     r0,#0
        0x080006b4:    4941        AI      LDR      r1,[pc,#260] ; [0x80007bc] = 0x40000814
        0x080006b6:    8008        ..      STRH     r0,[r1,#0]
        0x080006b8:    1f08        ..      SUBS     r0,r1,#4
        0x080006ba:    8800        ..      LDRH     r0,[r0,#0]
        0x080006bc:    b178        x.      CBZ      r0,0x80006de ; TIM4_IRQHandler + 46
        0x080006be:    bf00        ..      NOP      
        0x080006c0:    1f08        ..      SUBS     r0,r1,#4
        0x080006c2:    8800        ..      LDRH     r0,[r0,#0]
        0x080006c4:    f0200001     ...    BIC      r0,r0,#1
        0x080006c8:    1f09        ..      SUBS     r1,r1,#4
        0x080006ca:    8008        ..      STRH     r0,[r1,#0]
        0x080006cc:    1f08        ..      SUBS     r0,r1,#4
        0x080006ce:    8800        ..      LDRH     r0,[r0,#0]
        0x080006d0:    f0200001     ...    BIC      r0,r0,#1
        0x080006d4:    1f09        ..      SUBS     r1,r1,#4
        0x080006d6:    8008        ..      STRH     r0,[r1,#0]
        0x080006d8:    a039        9.      ADR      r0,{pc}+0xe8 ; 0x80007c0
        0x080006da:    f000fa79    ..y.    BL       __0printf$bare ; 0x8000bd0
        0x080006de:    4837        7H      LDR      r0,[pc,#220] ; [0x80007bc] = 0x40000814
        0x080006e0:    1f00        ..      SUBS     r0,r0,#4
        0x080006e2:    8800        ..      LDRH     r0,[r0,#0]
        0x080006e4:    b188        ..      CBZ      r0,0x800070a ; TIM4_IRQHandler + 90
        0x080006e6:    bf00        ..      NOP      
        0x080006e8:    4834        4H      LDR      r0,[pc,#208] ; [0x80007bc] = 0x40000814
        0x080006ea:    1f00        ..      SUBS     r0,r0,#4
        0x080006ec:    8800        ..      LDRH     r0,[r0,#0]
        0x080006ee:    f0200002     ...    BIC      r0,r0,#2
        0x080006f2:    4932        2I      LDR      r1,[pc,#200] ; [0x80007bc] = 0x40000814
        0x080006f4:    1f09        ..      SUBS     r1,r1,#4
        0x080006f6:    8008        ..      STRH     r0,[r1,#0]
        0x080006f8:    1f08        ..      SUBS     r0,r1,#4
        0x080006fa:    8800        ..      LDRH     r0,[r0,#0]
        0x080006fc:    f0200002     ...    BIC      r0,r0,#2
        0x08000700:    1f09        ..      SUBS     r1,r1,#4
        0x08000702:    8008        ..      STRH     r0,[r1,#0]
        0x08000704:    a033        3.      ADR      r0,{pc}+0xd0 ; 0x80007d4
        0x08000706:    f000fa63    ..c.    BL       __0printf$bare ; 0x8000bd0
        0x0800070a:    482c        ,H      LDR      r0,[pc,#176] ; [0x80007bc] = 0x40000814
        0x0800070c:    1f00        ..      SUBS     r0,r0,#4
        0x0800070e:    8800        ..      LDRH     r0,[r0,#0]
        0x08000710:    b188        ..      CBZ      r0,0x8000736 ; TIM4_IRQHandler + 134
        0x08000712:    bf00        ..      NOP      
        0x08000714:    4829        )H      LDR      r0,[pc,#164] ; [0x80007bc] = 0x40000814
        0x08000716:    1f00        ..      SUBS     r0,r0,#4
        0x08000718:    8800        ..      LDRH     r0,[r0,#0]
        0x0800071a:    f0200004     ...    BIC      r0,r0,#4
        0x0800071e:    4927        'I      LDR      r1,[pc,#156] ; [0x80007bc] = 0x40000814
        0x08000720:    1f09        ..      SUBS     r1,r1,#4
        0x08000722:    8008        ..      STRH     r0,[r1,#0]
        0x08000724:    1f08        ..      SUBS     r0,r1,#4
        0x08000726:    8800        ..      LDRH     r0,[r0,#0]
        0x08000728:    f0200004     ...    BIC      r0,r0,#4
        0x0800072c:    1f09        ..      SUBS     r1,r1,#4
        0x0800072e:    8008        ..      STRH     r0,[r1,#0]
        0x08000730:    a02c        ,.      ADR      r0,{pc}+0xb4 ; 0x80007e4
        0x08000732:    f000fa4d    ..M.    BL       __0printf$bare ; 0x8000bd0
        0x08000736:    4821        !H      LDR      r0,[pc,#132] ; [0x80007bc] = 0x40000814
        0x08000738:    1f00        ..      SUBS     r0,r0,#4
        0x0800073a:    8800        ..      LDRH     r0,[r0,#0]
        0x0800073c:    b188        ..      CBZ      r0,0x8000762 ; TIM4_IRQHandler + 178
        0x0800073e:    bf00        ..      NOP      
        0x08000740:    481e        .H      LDR      r0,[pc,#120] ; [0x80007bc] = 0x40000814
        0x08000742:    1f00        ..      SUBS     r0,r0,#4
        0x08000744:    8800        ..      LDRH     r0,[r0,#0]
        0x08000746:    f0200008     ...    BIC      r0,r0,#8
        0x0800074a:    491c        .I      LDR      r1,[pc,#112] ; [0x80007bc] = 0x40000814
        0x0800074c:    1f09        ..      SUBS     r1,r1,#4
        0x0800074e:    8008        ..      STRH     r0,[r1,#0]
        0x08000750:    1f08        ..      SUBS     r0,r1,#4
        0x08000752:    8800        ..      LDRH     r0,[r0,#0]
        0x08000754:    f0200008     ...    BIC      r0,r0,#8
        0x08000758:    1f09        ..      SUBS     r1,r1,#4
        0x0800075a:    8008        ..      STRH     r0,[r1,#0]
        0x0800075c:    a025        %.      ADR      r0,{pc}+0x98 ; 0x80007f4
        0x0800075e:    f000fa37    ..7.    BL       __0printf$bare ; 0x8000bd0
        0x08000762:    4816        .H      LDR      r0,[pc,#88] ; [0x80007bc] = 0x40000814
        0x08000764:    1f00        ..      SUBS     r0,r0,#4
        0x08000766:    8800        ..      LDRH     r0,[r0,#0]
        0x08000768:    b188        ..      CBZ      r0,0x800078e ; TIM4_IRQHandler + 222
        0x0800076a:    bf00        ..      NOP      
        0x0800076c:    4813        .H      LDR      r0,[pc,#76] ; [0x80007bc] = 0x40000814
        0x0800076e:    1f00        ..      SUBS     r0,r0,#4
        0x08000770:    8800        ..      LDRH     r0,[r0,#0]
        0x08000772:    f0200010     ...    BIC      r0,r0,#0x10
        0x08000776:    4911        .I      LDR      r1,[pc,#68] ; [0x80007bc] = 0x40000814
        0x08000778:    1f09        ..      SUBS     r1,r1,#4
        0x0800077a:    8008        ..      STRH     r0,[r1,#0]
        0x0800077c:    1f08        ..      SUBS     r0,r1,#4
        0x0800077e:    8800        ..      LDRH     r0,[r0,#0]
        0x08000780:    f0200010     ...    BIC      r0,r0,#0x10
        0x08000784:    1f09        ..      SUBS     r1,r1,#4
        0x08000786:    8008        ..      STRH     r0,[r1,#0]
        0x08000788:    a01e        ..      ADR      r0,{pc}+0x7c ; 0x8000804
        0x0800078a:    f000fa21    ..!.    BL       __0printf$bare ; 0x8000bd0
        0x0800078e:    480b        .H      LDR      r0,[pc,#44] ; [0x80007bc] = 0x40000814
        0x08000790:    1f00        ..      SUBS     r0,r0,#4
        0x08000792:    8800        ..      LDRH     r0,[r0,#0]
        0x08000794:    b188        ..      CBZ      r0,0x80007ba ; TIM4_IRQHandler + 266
        0x08000796:    bf00        ..      NOP      
        0x08000798:    4808        .H      LDR      r0,[pc,#32] ; [0x80007bc] = 0x40000814
        0x0800079a:    1f00        ..      SUBS     r0,r0,#4
        0x0800079c:    8800        ..      LDRH     r0,[r0,#0]
        0x0800079e:    f0200040     .@.    BIC      r0,r0,#0x40
        0x080007a2:    4906        .I      LDR      r1,[pc,#24] ; [0x80007bc] = 0x40000814
        0x080007a4:    1f09        ..      SUBS     r1,r1,#4
        0x080007a6:    8008        ..      STRH     r0,[r1,#0]
        0x080007a8:    1f08        ..      SUBS     r0,r1,#4
        0x080007aa:    8800        ..      LDRH     r0,[r0,#0]
        0x080007ac:    f0200040     .@.    BIC      r0,r0,#0x40
        0x080007b0:    1f09        ..      SUBS     r1,r1,#4
        0x080007b2:    8008        ..      STRH     r0,[r1,#0]
        0x080007b4:    a017        ..      ADR      r0,{pc}+0x60 ; 0x8000814
        0x080007b6:    f000fa0b    ....    BL       __0printf$bare ; 0x8000bd0
        0x080007ba:    bd10        ..      POP      {r4,pc}
    $d
        0x080007bc:    40000814    ...@    DCD    1073743892
        0x080007c0:    344d4954    TIM4    DCD    877480276
        0x080007c4:    64707520     upd    DCD    1685091616
        0x080007c8:    20617461    ata     DCD    543257697
        0x080007cc:    6e65706f    open    DCD    1852141679
        0x080007d0:    00000a0d    ....    DCD    2573
        0x080007d4:    344d4954    TIM4    DCD    877480276
        0x080007d8:    31434320     CC1    DCD    826491680
        0x080007dc:    65706f20     ope    DCD    1701867296
        0x080007e0:    000a0d6e    n...    DCD    658798
        0x080007e4:    344d4954    TIM4    DCD    877480276
        0x080007e8:    32434320     CC2    DCD    843268896
        0x080007ec:    65706f20     ope    DCD    1701867296
        0x080007f0:    000a0d6e    n...    DCD    658798
        0x080007f4:    344d4954    TIM4    DCD    877480276
        0x080007f8:    33434320     CC3    DCD    860046112
        0x080007fc:    65706f20     ope    DCD    1701867296
        0x08000800:    000a0d6e    n...    DCD    658798
        0x08000804:    344d4954    TIM4    DCD    877480276
        0x08000808:    34434320     CC4    DCD    876823328
        0x0800080c:    65706f20     ope    DCD    1701867296
        0x08000810:    000a0d6e    n...    DCD    658798
        0x08000814:    344d4954    TIM4    DCD    877480276
        0x08000818:    69727420     tri    DCD    1769108512
        0x0800081c:    706f2067    g op    DCD    1886330983
        0x08000820:    0a0d6e65    en..    DCD    168652389
        0x08000824:    00000000    ....    DCD    0
    $t
    i.TIM5_IRQHandler
    TIM5_IRQHandler
        0x08000828:    b510        ..      PUSH     {r4,lr}
        0x0800082a:    2000        .       MOVS     r0,#0
        0x0800082c:    4941        AI      LDR      r1,[pc,#260] ; [0x8000934] = 0x40000c14
        0x0800082e:    8008        ..      STRH     r0,[r1,#0]
        0x08000830:    1f08        ..      SUBS     r0,r1,#4
        0x08000832:    8800        ..      LDRH     r0,[r0,#0]
        0x08000834:    b178        x.      CBZ      r0,0x8000856 ; TIM5_IRQHandler + 46
        0x08000836:    bf00        ..      NOP      
        0x08000838:    1f08        ..      SUBS     r0,r1,#4
        0x0800083a:    8800        ..      LDRH     r0,[r0,#0]
        0x0800083c:    f0200001     ...    BIC      r0,r0,#1
        0x08000840:    1f09        ..      SUBS     r1,r1,#4
        0x08000842:    8008        ..      STRH     r0,[r1,#0]
        0x08000844:    1f08        ..      SUBS     r0,r1,#4
        0x08000846:    8800        ..      LDRH     r0,[r0,#0]
        0x08000848:    f0200001     ...    BIC      r0,r0,#1
        0x0800084c:    1f09        ..      SUBS     r1,r1,#4
        0x0800084e:    8008        ..      STRH     r0,[r1,#0]
        0x08000850:    a039        9.      ADR      r0,{pc}+0xe8 ; 0x8000938
        0x08000852:    f000f9bd    ....    BL       __0printf$bare ; 0x8000bd0
        0x08000856:    4837        7H      LDR      r0,[pc,#220] ; [0x8000934] = 0x40000c14
        0x08000858:    1f00        ..      SUBS     r0,r0,#4
        0x0800085a:    8800        ..      LDRH     r0,[r0,#0]
        0x0800085c:    b188        ..      CBZ      r0,0x8000882 ; TIM5_IRQHandler + 90
        0x0800085e:    bf00        ..      NOP      
        0x08000860:    4834        4H      LDR      r0,[pc,#208] ; [0x8000934] = 0x40000c14
        0x08000862:    1f00        ..      SUBS     r0,r0,#4
        0x08000864:    8800        ..      LDRH     r0,[r0,#0]
        0x08000866:    f0200002     ...    BIC      r0,r0,#2
        0x0800086a:    4932        2I      LDR      r1,[pc,#200] ; [0x8000934] = 0x40000c14
        0x0800086c:    1f09        ..      SUBS     r1,r1,#4
        0x0800086e:    8008        ..      STRH     r0,[r1,#0]
        0x08000870:    1f08        ..      SUBS     r0,r1,#4
        0x08000872:    8800        ..      LDRH     r0,[r0,#0]
        0x08000874:    f0200002     ...    BIC      r0,r0,#2
        0x08000878:    1f09        ..      SUBS     r1,r1,#4
        0x0800087a:    8008        ..      STRH     r0,[r1,#0]
        0x0800087c:    a033        3.      ADR      r0,{pc}+0xd0 ; 0x800094c
        0x0800087e:    f000f9a7    ....    BL       __0printf$bare ; 0x8000bd0
        0x08000882:    482c        ,H      LDR      r0,[pc,#176] ; [0x8000934] = 0x40000c14
        0x08000884:    1f00        ..      SUBS     r0,r0,#4
        0x08000886:    8800        ..      LDRH     r0,[r0,#0]
        0x08000888:    b188        ..      CBZ      r0,0x80008ae ; TIM5_IRQHandler + 134
        0x0800088a:    bf00        ..      NOP      
        0x0800088c:    4829        )H      LDR      r0,[pc,#164] ; [0x8000934] = 0x40000c14
        0x0800088e:    1f00        ..      SUBS     r0,r0,#4
        0x08000890:    8800        ..      LDRH     r0,[r0,#0]
        0x08000892:    f0200004     ...    BIC      r0,r0,#4
        0x08000896:    4927        'I      LDR      r1,[pc,#156] ; [0x8000934] = 0x40000c14
        0x08000898:    1f09        ..      SUBS     r1,r1,#4
        0x0800089a:    8008        ..      STRH     r0,[r1,#0]
        0x0800089c:    1f08        ..      SUBS     r0,r1,#4
        0x0800089e:    8800        ..      LDRH     r0,[r0,#0]
        0x080008a0:    f0200004     ...    BIC      r0,r0,#4
        0x080008a4:    1f09        ..      SUBS     r1,r1,#4
        0x080008a6:    8008        ..      STRH     r0,[r1,#0]
        0x080008a8:    a02c        ,.      ADR      r0,{pc}+0xb4 ; 0x800095c
        0x080008aa:    f000f991    ....    BL       __0printf$bare ; 0x8000bd0
        0x080008ae:    4821        !H      LDR      r0,[pc,#132] ; [0x8000934] = 0x40000c14
        0x080008b0:    1f00        ..      SUBS     r0,r0,#4
        0x080008b2:    8800        ..      LDRH     r0,[r0,#0]
        0x080008b4:    b188        ..      CBZ      r0,0x80008da ; TIM5_IRQHandler + 178
        0x080008b6:    bf00        ..      NOP      
        0x080008b8:    481e        .H      LDR      r0,[pc,#120] ; [0x8000934] = 0x40000c14
        0x080008ba:    1f00        ..      SUBS     r0,r0,#4
        0x080008bc:    8800        ..      LDRH     r0,[r0,#0]
        0x080008be:    f0200008     ...    BIC      r0,r0,#8
        0x080008c2:    491c        .I      LDR      r1,[pc,#112] ; [0x8000934] = 0x40000c14
        0x080008c4:    1f09        ..      SUBS     r1,r1,#4
        0x080008c6:    8008        ..      STRH     r0,[r1,#0]
        0x080008c8:    1f08        ..      SUBS     r0,r1,#4
        0x080008ca:    8800        ..      LDRH     r0,[r0,#0]
        0x080008cc:    f0200008     ...    BIC      r0,r0,#8
        0x080008d0:    1f09        ..      SUBS     r1,r1,#4
        0x080008d2:    8008        ..      STRH     r0,[r1,#0]
        0x080008d4:    a025        %.      ADR      r0,{pc}+0x98 ; 0x800096c
        0x080008d6:    f000f97b    ..{.    BL       __0printf$bare ; 0x8000bd0
        0x080008da:    4816        .H      LDR      r0,[pc,#88] ; [0x8000934] = 0x40000c14
        0x080008dc:    1f00        ..      SUBS     r0,r0,#4
        0x080008de:    8800        ..      LDRH     r0,[r0,#0]
        0x080008e0:    b188        ..      CBZ      r0,0x8000906 ; TIM5_IRQHandler + 222
        0x080008e2:    bf00        ..      NOP      
        0x080008e4:    4813        .H      LDR      r0,[pc,#76] ; [0x8000934] = 0x40000c14
        0x080008e6:    1f00        ..      SUBS     r0,r0,#4
        0x080008e8:    8800        ..      LDRH     r0,[r0,#0]
        0x080008ea:    f0200010     ...    BIC      r0,r0,#0x10
        0x080008ee:    4911        .I      LDR      r1,[pc,#68] ; [0x8000934] = 0x40000c14
        0x080008f0:    1f09        ..      SUBS     r1,r1,#4
        0x080008f2:    8008        ..      STRH     r0,[r1,#0]
        0x080008f4:    1f08        ..      SUBS     r0,r1,#4
        0x080008f6:    8800        ..      LDRH     r0,[r0,#0]
        0x080008f8:    f0200010     ...    BIC      r0,r0,#0x10
        0x080008fc:    1f09        ..      SUBS     r1,r1,#4
        0x080008fe:    8008        ..      STRH     r0,[r1,#0]
        0x08000900:    a01e        ..      ADR      r0,{pc}+0x7c ; 0x800097c
        0x08000902:    f000f965    ..e.    BL       __0printf$bare ; 0x8000bd0
        0x08000906:    480b        .H      LDR      r0,[pc,#44] ; [0x8000934] = 0x40000c14
        0x08000908:    1f00        ..      SUBS     r0,r0,#4
        0x0800090a:    8800        ..      LDRH     r0,[r0,#0]
        0x0800090c:    b188        ..      CBZ      r0,0x8000932 ; TIM5_IRQHandler + 266
        0x0800090e:    bf00        ..      NOP      
        0x08000910:    4808        .H      LDR      r0,[pc,#32] ; [0x8000934] = 0x40000c14
        0x08000912:    1f00        ..      SUBS     r0,r0,#4
        0x08000914:    8800        ..      LDRH     r0,[r0,#0]
        0x08000916:    f0200040     .@.    BIC      r0,r0,#0x40
        0x0800091a:    4906        .I      LDR      r1,[pc,#24] ; [0x8000934] = 0x40000c14
        0x0800091c:    1f09        ..      SUBS     r1,r1,#4
        0x0800091e:    8008        ..      STRH     r0,[r1,#0]
        0x08000920:    1f08        ..      SUBS     r0,r1,#4
        0x08000922:    8800        ..      LDRH     r0,[r0,#0]
        0x08000924:    f0200040     .@.    BIC      r0,r0,#0x40
        0x08000928:    1f09        ..      SUBS     r1,r1,#4
        0x0800092a:    8008        ..      STRH     r0,[r1,#0]
        0x0800092c:    a017        ..      ADR      r0,{pc}+0x60 ; 0x800098c
        0x0800092e:    f000f94f    ..O.    BL       __0printf$bare ; 0x8000bd0
        0x08000932:    bd10        ..      POP      {r4,pc}
    $d
        0x08000934:    40000c14    ...@    DCD    1073744916
        0x08000938:    354d4954    TIM5    DCD    894257492
        0x0800093c:    64707520     upd    DCD    1685091616
        0x08000940:    20617461    ata     DCD    543257697
        0x08000944:    6e65706f    open    DCD    1852141679
        0x08000948:    00000a0d    ....    DCD    2573
        0x0800094c:    354d4954    TIM5    DCD    894257492
        0x08000950:    31434320     CC1    DCD    826491680
        0x08000954:    65706f20     ope    DCD    1701867296
        0x08000958:    000a0d6e    n...    DCD    658798
        0x0800095c:    354d4954    TIM5    DCD    894257492
        0x08000960:    32434320     CC2    DCD    843268896
        0x08000964:    65706f20     ope    DCD    1701867296
        0x08000968:    000a0d6e    n...    DCD    658798
        0x0800096c:    354d4954    TIM5    DCD    894257492
        0x08000970:    33434320     CC3    DCD    860046112
        0x08000974:    65706f20     ope    DCD    1701867296
        0x08000978:    000a0d6e    n...    DCD    658798
        0x0800097c:    354d4954    TIM5    DCD    894257492
        0x08000980:    34434320     CC4    DCD    876823328
        0x08000984:    65706f20     ope    DCD    1701867296
        0x08000988:    000a0d6e    n...    DCD    658798
        0x0800098c:    354d4954    TIM5    DCD    894257492
        0x08000990:    69727420     tri    DCD    1769108512
        0x08000994:    706f2067    g op    DCD    1886330983
        0x08000998:    0a0d6e65    en..    DCD    168652389
        0x0800099c:    00000000    ....    DCD    0
    $t
    i.TIM_INIT
    TIM_INIT
        0x080009a0:    b51f        ..      PUSH     {r0-r4,lr}
        0x080009a2:    483a        :H      LDR      r0,[pc,#232] ; [0x8000a8c] = 0x40023840
        0x080009a4:    6800        .h      LDR      r0,[r0,#0]
        0x080009a6:    f040000f    @...    ORR      r0,r0,#0xf
        0x080009aa:    4938        8I      LDR      r1,[pc,#224] ; [0x8000a8c] = 0x40023840
        0x080009ac:    6008        .`      STR      r0,[r1,#0]
        0x080009ae:    f44f707a    O.zp    MOV      r0,#0x3e8
        0x080009b2:    9002        ..      STR      r0,[sp,#8]
        0x080009b4:    f24200d0    B...    MOV      r0,#0x20d0
        0x080009b8:    f8ad0004    ....    STRH     r0,[sp,#4]
        0x080009bc:    2000        .       MOVS     r0,#0
        0x080009be:    f8ad0006    ....    STRH     r0,[sp,#6]
        0x080009c2:    f8ad000c    ....    STRH     r0,[sp,#0xc]
        0x080009c6:    f88d000e    ....    STRB     r0,[sp,#0xe]
        0x080009ca:    a901        ..      ADD      r1,sp,#4
        0x080009cc:    f04f4080    O..@    MOV      r0,#0x40000000
        0x080009d0:    f000f864    ..d.    BL       TIM_TimeBaseInit ; 0x8000a9c
        0x080009d4:    a901        ..      ADD      r1,sp,#4
        0x080009d6:    482e        .H      LDR      r0,[pc,#184] ; [0x8000a90] = 0x40000400
        0x080009d8:    f000f860    ..`.    BL       TIM_TimeBaseInit ; 0x8000a9c
        0x080009dc:    a901        ..      ADD      r1,sp,#4
        0x080009de:    482d        -H      LDR      r0,[pc,#180] ; [0x8000a94] = 0x40000800
        0x080009e0:    f000f85c    ..\.    BL       TIM_TimeBaseInit ; 0x8000a9c
        0x080009e4:    a901        ..      ADD      r1,sp,#4
        0x080009e6:    482c        ,H      LDR      r0,[pc,#176] ; [0x8000a98] = 0x40000c00
        0x080009e8:    f000f858    ..X.    BL       TIM_TimeBaseInit ; 0x8000a9c
        0x080009ec:    f04f4080    O..@    MOV      r0,#0x40000000
        0x080009f0:    8980        ..      LDRH     r0,[r0,#0xc]
        0x080009f2:    f040005f    @._.    ORR      r0,r0,#0x5f
        0x080009f6:    f04f4180    O..A    MOV      r1,#0x40000000
        0x080009fa:    8188        ..      STRH     r0,[r1,#0xc]
        0x080009fc:    4824        $H      LDR      r0,[pc,#144] ; [0x8000a90] = 0x40000400
        0x080009fe:    300c        .0      ADDS     r0,r0,#0xc
        0x08000a00:    8800        ..      LDRH     r0,[r0,#0]
        0x08000a02:    f040005f    @._.    ORR      r0,r0,#0x5f
        0x08000a06:    4922        "I      LDR      r1,[pc,#136] ; [0x8000a90] = 0x40000400
        0x08000a08:    310c        .1      ADDS     r1,r1,#0xc
        0x08000a0a:    8008        ..      STRH     r0,[r1,#0]
        0x08000a0c:    4821        !H      LDR      r0,[pc,#132] ; [0x8000a94] = 0x40000800
        0x08000a0e:    300c        .0      ADDS     r0,r0,#0xc
        0x08000a10:    8800        ..      LDRH     r0,[r0,#0]
        0x08000a12:    f040005f    @._.    ORR      r0,r0,#0x5f
        0x08000a16:    491f        .I      LDR      r1,[pc,#124] ; [0x8000a94] = 0x40000800
        0x08000a18:    310c        .1      ADDS     r1,r1,#0xc
        0x08000a1a:    8008        ..      STRH     r0,[r1,#0]
        0x08000a1c:    481e        .H      LDR      r0,[pc,#120] ; [0x8000a98] = 0x40000c00
        0x08000a1e:    300c        .0      ADDS     r0,r0,#0xc
        0x08000a20:    8800        ..      LDRH     r0,[r0,#0]
        0x08000a22:    f040005f    @._.    ORR      r0,r0,#0x5f
        0x08000a26:    491c        .I      LDR      r1,[pc,#112] ; [0x8000a98] = 0x40000c00
        0x08000a28:    310c        .1      ADDS     r1,r1,#0xc
        0x08000a2a:    8008        ..      STRH     r0,[r1,#0]
        0x08000a2c:    2000        .       MOVS     r0,#0
        0x08000a2e:    f04f4180    O..A    MOV      r1,#0x40000000
        0x08000a32:    8208        ..      STRH     r0,[r1,#0x10]
        0x08000a34:    4916        .I      LDR      r1,[pc,#88] ; [0x8000a90] = 0x40000400
        0x08000a36:    3110        .1      ADDS     r1,r1,#0x10
        0x08000a38:    8008        ..      STRH     r0,[r1,#0]
        0x08000a3a:    4916        .I      LDR      r1,[pc,#88] ; [0x8000a94] = 0x40000800
        0x08000a3c:    3110        .1      ADDS     r1,r1,#0x10
        0x08000a3e:    8008        ..      STRH     r0,[r1,#0]
        0x08000a40:    4915        .I      LDR      r1,[pc,#84] ; [0x8000a98] = 0x40000c00
        0x08000a42:    3110        .1      ADDS     r1,r1,#0x10
        0x08000a44:    8008        ..      STRH     r0,[r1,#0]
        0x08000a46:    201c        .       MOVS     r0,#0x1c
        0x08000a48:    f88d0000    ....    STRB     r0,[sp,#0]
        0x08000a4c:    2001        .       MOVS     r0,#1
        0x08000a4e:    f88d0001    ....    STRB     r0,[sp,#1]
        0x08000a52:    2002        .       MOVS     r0,#2
        0x08000a54:    f88d0002    ....    STRB     r0,[sp,#2]
        0x08000a58:    2001        .       MOVS     r0,#1
        0x08000a5a:    f88d0003    ....    STRB     r0,[sp,#3]
        0x08000a5e:    4668        hF      MOV      r0,sp
        0x08000a60:    f7fffbce    ....    BL       NVIC_Init ; 0x8000200
        0x08000a64:    201d        .       MOVS     r0,#0x1d
        0x08000a66:    f88d0000    ....    STRB     r0,[sp,#0]
        0x08000a6a:    4668        hF      MOV      r0,sp
        0x08000a6c:    f7fffbc8    ....    BL       NVIC_Init ; 0x8000200
        0x08000a70:    201e        .       MOVS     r0,#0x1e
        0x08000a72:    f88d0000    ....    STRB     r0,[sp,#0]
        0x08000a76:    4668        hF      MOV      r0,sp
        0x08000a78:    f7fffbc2    ....    BL       NVIC_Init ; 0x8000200
        0x08000a7c:    2032        2       MOVS     r0,#0x32
        0x08000a7e:    f88d0000    ....    STRB     r0,[sp,#0]
        0x08000a82:    4668        hF      MOV      r0,sp
        0x08000a84:    f7fffbbc    ....    BL       NVIC_Init ; 0x8000200
        0x08000a88:    bd1f        ..      POP      {r0-r4,pc}
    $d
        0x08000a8a:    0000        ..      DCW    0
        0x08000a8c:    40023840    @8.@    DCD    1073887296
        0x08000a90:    40000400    ...@    DCD    1073742848
        0x08000a94:    40000800    ...@    DCD    1073743872
        0x08000a98:    40000c00    ...@    DCD    1073744896
    $t
    i.TIM_TimeBaseInit
    TIM_TimeBaseInit
        0x08000a9c:    2200        ."      MOVS     r2,#0
        0x08000a9e:    8802        ..      LDRH     r2,[r0,#0]
        0x08000aa0:    4b18        .K      LDR      r3,[pc,#96] ; [0x8000b04] = 0x40010000
        0x08000aa2:    4298        .B      CMP      r0,r3
        0x08000aa4:    d00e        ..      BEQ      0x8000ac4 ; TIM_TimeBaseInit + 40
        0x08000aa6:    4b18        .K      LDR      r3,[pc,#96] ; [0x8000b08] = 0x40010400
        0x08000aa8:    4298        .B      CMP      r0,r3
        0x08000aaa:    d00b        ..      BEQ      0x8000ac4 ; TIM_TimeBaseInit + 40
        0x08000aac:    f1b04f80    ...O    CMP      r0,#0x40000000
        0x08000ab0:    d008        ..      BEQ      0x8000ac4 ; TIM_TimeBaseInit + 40
        0x08000ab2:    4b16        .K      LDR      r3,[pc,#88] ; [0x8000b0c] = 0x40000400
        0x08000ab4:    4298        .B      CMP      r0,r3
        0x08000ab6:    d005        ..      BEQ      0x8000ac4 ; TIM_TimeBaseInit + 40
        0x08000ab8:    4b15        .K      LDR      r3,[pc,#84] ; [0x8000b10] = 0x40000800
        0x08000aba:    4298        .B      CMP      r0,r3
        0x08000abc:    d002        ..      BEQ      0x8000ac4 ; TIM_TimeBaseInit + 40
        0x08000abe:    4b15        .K      LDR      r3,[pc,#84] ; [0x8000b14] = 0x40000c00
        0x08000ac0:    4298        .B      CMP      r0,r3
        0x08000ac2:    d104        ..      BNE      0x8000ace ; TIM_TimeBaseInit + 50
        0x08000ac4:    f64f738f    O..s    MOV      r3,#0xff8f
        0x08000ac8:    401a        .@      ANDS     r2,r2,r3
        0x08000aca:    884b        K.      LDRH     r3,[r1,#2]
        0x08000acc:    431a        .C      ORRS     r2,r2,r3
        0x08000ace:    4b12        .K      LDR      r3,[pc,#72] ; [0x8000b18] = 0x40001000
        0x08000ad0:    4298        .B      CMP      r0,r3
        0x08000ad2:    d007        ..      BEQ      0x8000ae4 ; TIM_TimeBaseInit + 72
        0x08000ad4:    4b11        .K      LDR      r3,[pc,#68] ; [0x8000b1c] = 0x40001400
        0x08000ad6:    4298        .B      CMP      r0,r3
        0x08000ad8:    d004        ..      BEQ      0x8000ae4 ; TIM_TimeBaseInit + 72
        0x08000ada:    f64f43ff    O..C    MOV      r3,#0xfcff
        0x08000ade:    401a        .@      ANDS     r2,r2,r3
        0x08000ae0:    890b        ..      LDRH     r3,[r1,#8]
        0x08000ae2:    431a        .C      ORRS     r2,r2,r3
        0x08000ae4:    8002        ..      STRH     r2,[r0,#0]
        0x08000ae6:    684b        Kh      LDR      r3,[r1,#4]
        0x08000ae8:    62c3        .b      STR      r3,[r0,#0x2c]
        0x08000aea:    880b        ..      LDRH     r3,[r1,#0]
        0x08000aec:    8503        ..      STRH     r3,[r0,#0x28]
        0x08000aee:    4b05        .K      LDR      r3,[pc,#20] ; [0x8000b04] = 0x40010000
        0x08000af0:    4298        .B      CMP      r0,r3
        0x08000af2:    d002        ..      BEQ      0x8000afa ; TIM_TimeBaseInit + 94
        0x08000af4:    4b04        .K      LDR      r3,[pc,#16] ; [0x8000b08] = 0x40010400
        0x08000af6:    4298        .B      CMP      r0,r3
        0x08000af8:    d101        ..      BNE      0x8000afe ; TIM_TimeBaseInit + 98
        0x08000afa:    7a8b        .z      LDRB     r3,[r1,#0xa]
        0x08000afc:    8603        ..      STRH     r3,[r0,#0x30]
        0x08000afe:    2301        .#      MOVS     r3,#1
        0x08000b00:    8283        ..      STRH     r3,[r0,#0x14]
        0x08000b02:    4770        pG      BX       lr
    $d
        0x08000b04:    40010000    ...@    DCD    1073807360
        0x08000b08:    40010400    ...@    DCD    1073808384
        0x08000b0c:    40000400    ...@    DCD    1073742848
        0x08000b10:    40000800    ...@    DCD    1073743872
        0x08000b14:    40000c00    ...@    DCD    1073744896
        0x08000b18:    40001000    ...@    DCD    1073745920
        0x08000b1c:    40001400    ...@    DCD    1073746944
    $t
    i.UartEndSimulation
    UartEndSimulation
        0x08000b20:    2004        .       MOVS     r0,#4
        0x08000b22:    f000f803    ....    BL       UartPutc ; 0x8000b2c
        0x08000b26:    bf00        ..      NOP      
        0x08000b28:    e7fe        ..      B        0x8000b28 ; UartEndSimulation + 8
        0x08000b2a:    0000        ..      MOVS     r0,r0
    i.UartPutc
    UartPutc
        0x08000b2c:    bf00        ..      NOP      
        0x08000b2e:    4905        .I      LDR      r1,[pc,#20] ; [0x8000b44] = 0x40011000
        0x08000b30:    7809        .x      LDRB     r1,[r1,#0]
        0x08000b32:    f0010180    ....    AND      r1,r1,#0x80
        0x08000b36:    2900        .)      CMP      r1,#0
        0x08000b38:    d0f9        ..      BEQ      0x8000b2e ; UartPutc + 2
        0x08000b3a:    f3c00108    ....    UBFX     r1,r0,#0,#9
        0x08000b3e:    4a01        .J      LDR      r2,[pc,#4] ; [0x8000b44] = 0x40011000
        0x08000b40:    6051        Q`      STR      r1,[r2,#4]
        0x08000b42:    4770        pG      BX       lr
    $d
        0x08000b44:    40011000    ...@    DCD    1073811456
    $t
    i.UartStdOutInit
    UartStdOutInit
        0x08000b48:    481d        .H      LDR      r0,[pc,#116] ; [0x8000bc0] = 0x40023830
        0x08000b4a:    6800        .h      LDR      r0,[r0,#0]
        0x08000b4c:    f0400001    @...    ORR      r0,r0,#1
        0x08000b50:    491b        .I      LDR      r1,[pc,#108] ; [0x8000bc0] = 0x40023830
        0x08000b52:    6008        .`      STR      r0,[r1,#0]
        0x08000b54:    481a        .H      LDR      r0,[pc,#104] ; [0x8000bc0] = 0x40023830
        0x08000b56:    3014        .0      ADDS     r0,r0,#0x14
        0x08000b58:    6800        .h      LDR      r0,[r0,#0]
        0x08000b5a:    f0400010    @...    ORR      r0,r0,#0x10
        0x08000b5e:    4918        .I      LDR      r1,[pc,#96] ; [0x8000bc0] = 0x40023830
        0x08000b60:    3114        .1      ADDS     r1,r1,#0x14
        0x08000b62:    6008        .`      STR      r0,[r1,#0]
        0x08000b64:    4817        .H      LDR      r0,[pc,#92] ; [0x8000bc4] = 0x40020000
        0x08000b66:    6a40        @j      LDR      r0,[r0,#0x24]
        0x08000b68:    f0400070    @.p.    ORR      r0,r0,#0x70
        0x08000b6c:    4915        .I      LDR      r1,[pc,#84] ; [0x8000bc4] = 0x40020000
        0x08000b6e:    6248        Hb      STR      r0,[r1,#0x24]
        0x08000b70:    4608        .F      MOV      r0,r1
        0x08000b72:    6800        .h      LDR      r0,[r0,#0]
        0x08000b74:    f4402000    @..     ORR      r0,r0,#0x80000
        0x08000b78:    6008        .`      STR      r0,[r1,#0]
        0x08000b7a:    4608        .F      MOV      r0,r1
        0x08000b7c:    6840        @h      LDR      r0,[r0,#4]
        0x08000b7e:    f4202000     ..     BIC      r0,r0,#0x80000
        0x08000b82:    6048        H`      STR      r0,[r1,#4]
        0x08000b84:    4608        .F      MOV      r0,r1
        0x08000b86:    6880        .h      LDR      r0,[r0,#8]
        0x08000b88:    f4402000    @..     ORR      r0,r0,#0x80000
        0x08000b8c:    6088        .`      STR      r0,[r1,#8]
        0x08000b8e:    4608        .F      MOV      r0,r1
        0x08000b90:    68c0        .h      LDR      r0,[r0,#0xc]
        0x08000b92:    f4402080    @..     ORR      r0,r0,#0x40000
        0x08000b96:    60c8        .`      STR      r0,[r1,#0xc]
        0x08000b98:    480b        .H      LDR      r0,[pc,#44] ; [0x8000bc8] = 0x40011000
        0x08000b9a:    6880        .h      LDR      r0,[r0,#8]
        0x08000b9c:    f24021d9    @..!    MOV      r1,#0x2d9
        0x08000ba0:    4308        .C      ORRS     r0,r0,r1
        0x08000ba2:    4909        .I      LDR      r1,[pc,#36] ; [0x8000bc8] = 0x40011000
        0x08000ba4:    6088        .`      STR      r0,[r1,#8]
        0x08000ba6:    4608        .F      MOV      r0,r1
        0x08000ba8:    68c0        .h      LDR      r0,[r0,#0xc]
        0x08000baa:    f242010c    B...    MOV      r1,#0x200c
        0x08000bae:    4308        .C      ORRS     r0,r0,r1
        0x08000bb0:    4905        .I      LDR      r1,[pc,#20] ; [0x8000bc8] = 0x40011000
        0x08000bb2:    60c8        .`      STR      r0,[r1,#0xc]
        0x08000bb4:    4608        .F      MOV      r0,r1
        0x08000bb6:    69c0        .i      LDR      r0,[r0,#0x1c]
        0x08000bb8:    f0400001    @...    ORR      r0,r0,#1
        0x08000bbc:    61c8        .a      STR      r0,[r1,#0x1c]
        0x08000bbe:    4770        pG      BX       lr
    $d
        0x08000bc0:    40023830    08.@    DCD    1073887280
        0x08000bc4:    40020000    ...@    DCD    1073872896
        0x08000bc8:    40011000    ...@    DCD    1073811456
    $t
    i.UsageFault_Handler
    UsageFault_Handler
        0x08000bcc:    bf00        ..      NOP      
        0x08000bce:    e7fe        ..      B        0x8000bce ; UsageFault_Handler + 2
    i.__0printf$bare
    __0printf$bare
    __1printf$bare
    __2printf
        0x08000bd0:    4a01        .J      LDR      r2,[pc,#4] ; [0x8000bd8] = 0x8000c21
        0x08000bd2:    4902        .I      LDR      r1,[pc,#8] ; [0x8000bdc] = 0x20000004
        0x08000bd4:    f000b813    ....    B.W      _printf_core ; 0x8000bfe
    $d
        0x08000bd8:    08000c21    !...    DCD    134220833
        0x08000bdc:    20000004    ...     DCD    536870916
    $t
    i.__scatterload_copy
    __scatterload_copy
        0x08000be0:    e002        ..      B        0x8000be8 ; __scatterload_copy + 8
        0x08000be2:    c808        ..      LDM      r0!,{r3}
        0x08000be4:    1f12        ..      SUBS     r2,r2,#4
        0x08000be6:    c108        ..      STM      r1!,{r3}
        0x08000be8:    2a00        .*      CMP      r2,#0
        0x08000bea:    d1fa        ..      BNE      0x8000be2 ; __scatterload_copy + 2
        0x08000bec:    4770        pG      BX       lr
    i.__scatterload_null
    __scatterload_null
        0x08000bee:    4770        pG      BX       lr
    i.__scatterload_zeroinit
    __scatterload_zeroinit
        0x08000bf0:    2000        .       MOVS     r0,#0
        0x08000bf2:    e001        ..      B        0x8000bf8 ; __scatterload_zeroinit + 8
        0x08000bf4:    c101        ..      STM      r1!,{r0}
        0x08000bf6:    1f12        ..      SUBS     r2,r2,#4
        0x08000bf8:    2a00        .*      CMP      r2,#0
        0x08000bfa:    d1fb        ..      BNE      0x8000bf4 ; __scatterload_zeroinit + 4
        0x08000bfc:    4770        pG      BX       lr
    i._printf_core
    _printf_core
        0x08000bfe:    e92d41f0    -..A    PUSH     {r4-r8,lr}
        0x08000c02:    4616        .F      MOV      r6,r2
        0x08000c04:    460f        .F      MOV      r7,r1
        0x08000c06:    4604        .F      MOV      r4,r0
        0x08000c08:    2500        .%      MOVS     r5,#0
        0x08000c0a:    e003        ..      B        0x8000c14 ; _printf_core + 22
        0x08000c0c:    4639        9F      MOV      r1,r7
        0x08000c0e:    47b0        .G      BLX      r6
        0x08000c10:    1c64        d.      ADDS     r4,r4,#1
        0x08000c12:    1c6d        m.      ADDS     r5,r5,#1
        0x08000c14:    7820         x      LDRB     r0,[r4,#0]
        0x08000c16:    2800        .(      CMP      r0,#0
        0x08000c18:    d1f8        ..      BNE      0x8000c0c ; _printf_core + 14
        0x08000c1a:    4628        (F      MOV      r0,r5
        0x08000c1c:    e8bd81f0    ....    POP      {r4-r8,pc}
    i.fputc
    fputc
        0x08000c20:    b510        ..      PUSH     {r4,lr}
        0x08000c22:    4603        .F      MOV      r3,r0
        0x08000c24:    460c        .F      MOV      r4,r1
        0x08000c26:    b2d8        ..      UXTB     r0,r3
        0x08000c28:    f7ffff80    ....    BL       UartPutc ; 0x8000b2c
        0x08000c2c:    bd10        ..      POP      {r4,pc}
        0x08000c2e:    0000        ..      MOVS     r0,r0
    i.main
    main
        0x08000c30:    f7ffff8a    ....    BL       UartStdOutInit ; 0x8000b48
        0x08000c34:    a034        4.      ADR      r0,{pc}+0xd4 ; 0x8000d08
        0x08000c36:    f7ffffcb    ....    BL       __0printf$bare ; 0x8000bd0
        0x08000c3a:    f7fffeb1    ....    BL       TIM_INIT ; 0x80009a0
        0x08000c3e:    f04f4080    O..@    MOV      r0,#0x40000000
        0x08000c42:    8800        ..      LDRH     r0,[r0,#0]
        0x08000c44:    f0400001    @...    ORR      r0,r0,#1
        0x08000c48:    f04f4180    O..A    MOV      r1,#0x40000000
        0x08000c4c:    8008        ..      STRH     r0,[r1,#0]
        0x08000c4e:    2001        .       MOVS     r0,#1
        0x08000c50:    8288        ..      STRH     r0,[r1,#0x14]
        0x08000c52:    2002        .       MOVS     r0,#2
        0x08000c54:    8288        ..      STRH     r0,[r1,#0x14]
        0x08000c56:    2004        .       MOVS     r0,#4
        0x08000c58:    8288        ..      STRH     r0,[r1,#0x14]
        0x08000c5a:    2008        .       MOVS     r0,#8
        0x08000c5c:    8288        ..      STRH     r0,[r1,#0x14]
        0x08000c5e:    2010        .       MOVS     r0,#0x10
        0x08000c60:    8288        ..      STRH     r0,[r1,#0x14]
        0x08000c62:    2040        @       MOVS     r0,#0x40
        0x08000c64:    8288        ..      STRH     r0,[r1,#0x14]
        0x08000c66:    2000        .       MOVS     r0,#0
        0x08000c68:    8008        ..      STRH     r0,[r1,#0]
        0x08000c6a:    482b        +H      LDR      r0,[pc,#172] ; [0x8000d18] = 0x40000400
        0x08000c6c:    8800        ..      LDRH     r0,[r0,#0]
        0x08000c6e:    f0400001    @...    ORR      r0,r0,#1
        0x08000c72:    4929        )I      LDR      r1,[pc,#164] ; [0x8000d18] = 0x40000400
        0x08000c74:    8008        ..      STRH     r0,[r1,#0]
        0x08000c76:    2001        .       MOVS     r0,#1
        0x08000c78:    4927        'I      LDR      r1,[pc,#156] ; [0x8000d18] = 0x40000400
        0x08000c7a:    3114        .1      ADDS     r1,r1,#0x14
        0x08000c7c:    8008        ..      STRH     r0,[r1,#0]
        0x08000c7e:    2002        .       MOVS     r0,#2
        0x08000c80:    8008        ..      STRH     r0,[r1,#0]
        0x08000c82:    2004        .       MOVS     r0,#4
        0x08000c84:    8008        ..      STRH     r0,[r1,#0]
        0x08000c86:    2008        .       MOVS     r0,#8
        0x08000c88:    8008        ..      STRH     r0,[r1,#0]
        0x08000c8a:    2010        .       MOVS     r0,#0x10
        0x08000c8c:    8008        ..      STRH     r0,[r1,#0]
        0x08000c8e:    2040        @       MOVS     r0,#0x40
        0x08000c90:    8008        ..      STRH     r0,[r1,#0]
        0x08000c92:    2000        .       MOVS     r0,#0
        0x08000c94:    4920         I      LDR      r1,[pc,#128] ; [0x8000d18] = 0x40000400
        0x08000c96:    8008        ..      STRH     r0,[r1,#0]
        0x08000c98:    4820         H      LDR      r0,[pc,#128] ; [0x8000d1c] = 0x40000800
        0x08000c9a:    8800        ..      LDRH     r0,[r0,#0]
        0x08000c9c:    f0400001    @...    ORR      r0,r0,#1
        0x08000ca0:    491e        .I      LDR      r1,[pc,#120] ; [0x8000d1c] = 0x40000800
        0x08000ca2:    8008        ..      STRH     r0,[r1,#0]
        0x08000ca4:    2001        .       MOVS     r0,#1
        0x08000ca6:    491d        .I      LDR      r1,[pc,#116] ; [0x8000d1c] = 0x40000800
        0x08000ca8:    3114        .1      ADDS     r1,r1,#0x14
        0x08000caa:    8008        ..      STRH     r0,[r1,#0]
        0x08000cac:    2002        .       MOVS     r0,#2
        0x08000cae:    8008        ..      STRH     r0,[r1,#0]
        0x08000cb0:    2004        .       MOVS     r0,#4
        0x08000cb2:    8008        ..      STRH     r0,[r1,#0]
        0x08000cb4:    2008        .       MOVS     r0,#8
        0x08000cb6:    8008        ..      STRH     r0,[r1,#0]
        0x08000cb8:    2010        .       MOVS     r0,#0x10
        0x08000cba:    8008        ..      STRH     r0,[r1,#0]
        0x08000cbc:    2040        @       MOVS     r0,#0x40
        0x08000cbe:    8008        ..      STRH     r0,[r1,#0]
        0x08000cc0:    2000        .       MOVS     r0,#0
        0x08000cc2:    4916        .I      LDR      r1,[pc,#88] ; [0x8000d1c] = 0x40000800
        0x08000cc4:    8008        ..      STRH     r0,[r1,#0]
        0x08000cc6:    4816        .H      LDR      r0,[pc,#88] ; [0x8000d20] = 0x40000c00
        0x08000cc8:    8800        ..      LDRH     r0,[r0,#0]
        0x08000cca:    f0400001    @...    ORR      r0,r0,#1
        0x08000cce:    4914        .I      LDR      r1,[pc,#80] ; [0x8000d20] = 0x40000c00
        0x08000cd0:    8008        ..      STRH     r0,[r1,#0]
        0x08000cd2:    2001        .       MOVS     r0,#1
        0x08000cd4:    4912        .I      LDR      r1,[pc,#72] ; [0x8000d20] = 0x40000c00
        0x08000cd6:    3114        .1      ADDS     r1,r1,#0x14
        0x08000cd8:    8008        ..      STRH     r0,[r1,#0]
        0x08000cda:    2002        .       MOVS     r0,#2
        0x08000cdc:    8008        ..      STRH     r0,[r1,#0]
        0x08000cde:    2004        .       MOVS     r0,#4
        0x08000ce0:    8008        ..      STRH     r0,[r1,#0]
        0x08000ce2:    2008        .       MOVS     r0,#8
        0x08000ce4:    8008        ..      STRH     r0,[r1,#0]
        0x08000ce6:    2010        .       MOVS     r0,#0x10
        0x08000ce8:    8008        ..      STRH     r0,[r1,#0]
        0x08000cea:    2040        @       MOVS     r0,#0x40
        0x08000cec:    8008        ..      STRH     r0,[r1,#0]
        0x08000cee:    2000        .       MOVS     r0,#0
        0x08000cf0:    490b        .I      LDR      r1,[pc,#44] ; [0x8000d20] = 0x40000c00
        0x08000cf2:    8008        ..      STRH     r0,[r1,#0]
        0x08000cf4:    e007        ..      B        0x8000d06 ; main + 214
        0x08000cf6:    480b        .H      LDR      r0,[pc,#44] ; [0x8000d24] = 0x20000000
        0x08000cf8:    6800        .h      LDR      r0,[r0,#0]
        0x08000cfa:    b120         .      CBZ      r0,0x8000d06 ; main + 214
        0x08000cfc:    a00a        ..      ADR      r0,{pc}+0x2c ; 0x8000d28
        0x08000cfe:    f7ffff67    ..g.    BL       __0printf$bare ; 0x8000bd0
        0x08000d02:    f7ffff0d    ....    BL       UartEndSimulation ; 0x8000b20
        0x08000d06:    e7f6        ..      B        0x8000cf6 ; main + 198
    $d
        0x08000d08:    54584554    TEXT    DCD    1415071060
        0x08000d0c:    41545320     STA    DCD    1096045344
        0x08000d10:    0a0d5452    RT..    DCD    168645714
        0x08000d14:    00000000    ....    DCD    0
        0x08000d18:    40000400    ...@    DCD    1073742848
        0x08000d1c:    40000800    ...@    DCD    1073743872
        0x08000d20:    40000c00    ...@    DCD    1073744896
        0x08000d24:    20000000    ...     DCD    536870912
        0x08000d28:    74697845    Exit    DCD    1953069125
        0x08000d2c:    746e6920     int    DCD    1953392928
        0x08000d30:    75727265    erru    DCD    1970434661
        0x08000d34:    61207470    pt a    DCD    1629516912
        0x08000d38:    7420646e    nd t    DCD    1948279918
        0x08000d3c:    20747365    est     DCD    544502629
        0x08000d40:    73646e65    ends    DCD    1935961701
        0x08000d44:    00000a0d    ....    DCD    2573
    $d.realdata
    Region$$Table$$Base
        0x08000d48:    08000d68    h...    DCD    134221160
        0x08000d4c:    20000000    ...     DCD    536870912
        0x08000d50:    00000008    ....    DCD    8
        0x08000d54:    08000be0    ....    DCD    134220768
        0x08000d58:    08000d70    p...    DCD    134221168
        0x08000d5c:    20000008    ...     DCD    536870920
        0x08000d60:    00000400    ....    DCD    1024
        0x08000d64:    08000bf0    ....    DCD    134220784
    Region$$Table$$Limit

** Section #2 'RW_IRAM1' (SHT_PROGBITS) [SHF_ALLOC + SHF_WRITE]
    Size   : 8 bytes (alignment 4)
    Address: 0x20000000


** Section #3 'RW_IRAM1' (SHT_NOBITS) [SHF_ALLOC + SHF_WRITE]
    Size   : 1024 bytes (alignment 8)
    Address: 0x20000008


** Section #4 '.debug_abbrev' (SHT_PROGBITS)
    Size   : 1476 bytes


** Section #5 '.debug_frame' (SHT_PROGBITS)
    Size   : 1600 bytes


** Section #6 '.debug_info' (SHT_PROGBITS)
    Size   : 30780 bytes


** Section #7 '.debug_line' (SHT_PROGBITS)
    Size   : 4288 bytes


** Section #8 '.debug_loc' (SHT_PROGBITS)
    Size   : 764 bytes


** Section #9 '.debug_macinfo' (SHT_PROGBITS)
    Size   : 435488 bytes


** Section #10 '.debug_pubnames' (SHT_PROGBITS)
    Size   : 937 bytes


** Section #11 '.symtab' (SHT_SYMTAB)
    Size   : 5040 bytes (alignment 4)
    String table #12 '.strtab'
    Last local symbol no. 212


** Section #12 '.strtab' (SHT_STRTAB)
    Size   : 6072 bytes


** Section #13 '.note' (SHT_NOTE)
    Size   : 28 bytes (alignment 4)


** Section #14 '.comment' (SHT_PROGBITS)
    Size   : 50592 bytes


** Section #15 '.shstrtab' (SHT_STRTAB)
    Size   : 156 bytes


