
========================================================================

** ELF Header Information

    File Name: e:\Èí¼þ\TIMER\TIM1_CONNECTION\prj\LMCM32401-Program\Project\Objects\Template.axf

    Machine class: ELFCLASS32 (32-bit)
    Data encoding: ELFDATA2LSB (Little endian)
    Header version: EV_CURRENT (Current version)
    Operating System ABI: none
    ABI Version: 0
    File Type: ET_EXEC (Executable) (2)
    Machine: EM_ARM (ARM)

    Image Entry point: 0x08000195
    Flags: EF_ARM_HASENTRY (0x05000002)

    ARM ELF revision: 5 (ABI version 2)

    Conforms to Base float procedure-call standard

    Built with
    Component: ARM Compiler 5.06 update 5 (build 528) Tool: armasm [4d35e1]
    Component: ARM Compiler 5.06 update 5 (build 528) Tool: armlink [4d35e2]

    Header size: 52 bytes (0x34)
    Program header entry size: 32 bytes (0x20)
    Section header entry size: 40 bytes (0x28)

    Program header entries: 1
    Section header entries: 16

    Program header offset: 319116 (0x0004de8c)
    Section header offset: 319148 (0x0004deac)

    Section header string table index: 15

========================================================================

** Program header #0 (PT_LOAD) [PF_X + PF_W + PF_R + PF_ARM_ENTRY]
    Size : 6580 bytes (2480 bytes in file)
    Virtual address: 0x08000000 (Alignment 8)


========================================================================

** Section #1 'ER_IROM1' (SHT_PROGBITS) [SHF_ALLOC + SHF_EXECINSTR]
    Size   : 2468 bytes (alignment 4)
    Address: 0x08000000

    $d.realdata
    RESET
    __Vectors
        0x08000000:    20001010    ...     DCD    536875024
        0x08000004:    080001a9    ....    DCD    134218153
        0x08000008:    0800022b    +...    DCD    134218283
        0x0800000c:    08000223    #...    DCD    134218275
        0x08000010:    08000227    '...    DCD    134218279
        0x08000014:    0800021d    ....    DCD    134218269
        0x08000018:    080007a1    ....    DCD    134219681
        0x0800001c:    00000000    ....    DCD    0
        0x08000020:    00000000    ....    DCD    0
        0x08000024:    00000000    ....    DCD    0
        0x08000028:    00000000    ....    DCD    0
        0x0800002c:    080002e9    ....    DCD    134218473
        0x08000030:    08000221    !...    DCD    134218273
        0x08000034:    00000000    ....    DCD    0
        0x08000038:    080002a5    ....    DCD    134218405
        0x0800003c:    080003d5    ....    DCD    134218709
        0x08000040:    080001c3    ....    DCD    134218179
        0x08000044:    080001c3    ....    DCD    134218179
        0x08000048:    080001c3    ....    DCD    134218179
        0x0800004c:    080001c3    ....    DCD    134218179
        0x08000050:    080001c3    ....    DCD    134218179
        0x08000054:    080001c3    ....    DCD    134218179
        0x08000058:    080001c3    ....    DCD    134218179
        0x0800005c:    080001c3    ....    DCD    134218179
        0x08000060:    080001c3    ....    DCD    134218179
        0x08000064:    080001c3    ....    DCD    134218179
        0x08000068:    080001c3    ....    DCD    134218179
        0x0800006c:    080001c3    ....    DCD    134218179
        0x08000070:    080001c3    ....    DCD    134218179
        0x08000074:    080001c3    ....    DCD    134218179
        0x08000078:    080001c3    ....    DCD    134218179
        0x0800007c:    080001c3    ....    DCD    134218179
        0x08000080:    080001c3    ....    DCD    134218179
        0x08000084:    080001c3    ....    DCD    134218179
        0x08000088:    080001c3    ....    DCD    134218179
        0x0800008c:    00000000    ....    DCD    0
        0x08000090:    00000000    ....    DCD    0
        0x08000094:    00000000    ....    DCD    0
        0x08000098:    00000000    ....    DCD    0
        0x0800009c:    080001c3    ....    DCD    134218179
        0x080000a0:    080001c3    ....    DCD    134218179
        0x080000a4:    08000441    A...    DCD    134218817
        0x080000a8:    080001c3    ....    DCD    134218179
        0x080000ac:    080001c3    ....    DCD    134218179
        0x080000b0:    0800046d    m...    DCD    134218861
        0x080000b4:    080001c3    ....    DCD    134218179
        0x080000b8:    080001c3    ....    DCD    134218179
        0x080000bc:    080001c3    ....    DCD    134218179
        0x080000c0:    080001c3    ....    DCD    134218179
        0x080000c4:    080001c3    ....    DCD    134218179
        0x080000c8:    080001c3    ....    DCD    134218179
        0x080000cc:    080001c3    ....    DCD    134218179
        0x080000d0:    080001c3    ....    DCD    134218179
        0x080000d4:    080001c3    ....    DCD    134218179
        0x080000d8:    080001c3    ....    DCD    134218179
        0x080000dc:    00000000    ....    DCD    0
        0x080000e0:    080001c3    ....    DCD    134218179
        0x080000e4:    080001c3    ....    DCD    134218179
        0x080000e8:    080001c3    ....    DCD    134218179
        0x080000ec:    00000000    ....    DCD    0
        0x080000f0:    00000000    ....    DCD    0
        0x080000f4:    00000000    ....    DCD    0
        0x080000f8:    00000000    ....    DCD    0
        0x080000fc:    080001c3    ....    DCD    134218179
        0x08000100:    00000000    ....    DCD    0
        0x08000104:    080001c3    ....    DCD    134218179
        0x08000108:    080001c3    ....    DCD    134218179
        0x0800010c:    080001c3    ....    DCD    134218179
        0x08000110:    00000000    ....    DCD    0
        0x08000114:    00000000    ....    DCD    0
        0x08000118:    00000000    ....    DCD    0
        0x0800011c:    00000000    ....    DCD    0
        0x08000120:    080001c3    ....    DCD    134218179
        0x08000124:    080001c3    ....    DCD    134218179
        0x08000128:    080001c3    ....    DCD    134218179
        0x0800012c:    080001c3    ....    DCD    134218179
        0x08000130:    080001c3    ....    DCD    134218179
        0x08000134:    00000000    ....    DCD    0
        0x08000138:    00000000    ....    DCD    0
        0x0800013c:    00000000    ....    DCD    0
        0x08000140:    00000000    ....    DCD    0
        0x08000144:    00000000    ....    DCD    0
        0x08000148:    00000000    ....    DCD    0
        0x0800014c:    080001c3    ....    DCD    134218179
        0x08000150:    080001c3    ....    DCD    134218179
        0x08000154:    080001c3    ....    DCD    134218179
        0x08000158:    080001c3    ....    DCD    134218179
        0x0800015c:    080001c3    ....    DCD    134218179
        0x08000160:    080001c3    ....    DCD    134218179
        0x08000164:    080001c3    ....    DCD    134218179
        0x08000168:    00000000    ....    DCD    0
        0x0800016c:    00000000    ....    DCD    0
        0x08000170:    00000000    ....    DCD    0
        0x08000174:    00000000    ....    DCD    0
        0x08000178:    00000000    ....    DCD    0
        0x0800017c:    00000000    ....    DCD    0
        0x08000180:    00000000    ....    DCD    0
        0x08000184:    080001c3    ....    DCD    134218179
        0x08000188:    00000000    ....    DCD    0
        0x0800018c:    00000000    ....    DCD    0
        0x08000190:    080001c3    ....    DCD    134218179
    $t
    .ARM.Collect$$$$00000000
    .ARM.Collect$$$$00000001
    __Vectors_End
    __main
    _main_stk
        0x08000194:    f8dfd00c    ....    LDR      sp,__lit__00000000 ; [0x80001a4] = 0x20001010
    .ARM.Collect$$$$00000004
    _main_scatterload
        0x08000198:    f000f82e    ....    BL       __scatterload ; 0x80001f8
    .ARM.Collect$$$$00000008
    .ARM.Collect$$$$0000000A
    .ARM.Collect$$$$0000000B
    __main_after_scatterload
    _main_clock
    _main_cpp_init
    _main_init
        0x0800019c:    4800        .H      LDR      r0,[pc,#0] ; [0x80001a0] = 0x8000949
        0x0800019e:    4700        .G      BX       r0
    $d
        0x080001a0:    08000949    I...    DCD    134220105
    .ARM.Collect$$$$00002712
    __lit__00000000
    .ARM.Collect$$$$0000000D
    .ARM.Collect$$$$0000000F
    __rt_final_cpp
    __rt_final_exit
        0x080001a4:    20001010    ...     DCD    536875024
    $t
    .text
    $v0
    Reset_Handler
        0x080001a8:    4806        .H      LDR      r0,[pc,#24] ; [0x80001c4] = 0x80003d9
        0x080001aa:    4780        .G      BLX      r0
        0x080001ac:    4806        .H      LDR      r0,[pc,#24] ; [0x80001c8] = 0x8000195
        0x080001ae:    4700        .G      BX       r0
        0x080001b0:    e7fe        ..      B        0x80001b0 ; Reset_Handler + 8
        0x080001b2:    e7fe        ..      B        0x80001b2 ; Reset_Handler + 10
        0x080001b4:    e7fe        ..      B        0x80001b4 ; Reset_Handler + 12
        0x080001b6:    e7fe        ..      B        0x80001b6 ; Reset_Handler + 14
        0x080001b8:    e7fe        ..      B        0x80001b8 ; Reset_Handler + 16
        0x080001ba:    e7fe        ..      B        0x80001ba ; Reset_Handler + 18
        0x080001bc:    e7fe        ..      B        0x80001bc ; Reset_Handler + 20
        0x080001be:    e7fe        ..      B        0x80001be ; Reset_Handler + 22
        0x080001c0:    e7fe        ..      B        0x80001c0 ; Reset_Handler + 24
    ADC_IRQHandler
    DMA1_Stream0_IRQHandler
    DMA1_Stream1_IRQHandler
    DMA1_Stream2_IRQHandler
    DMA1_Stream3_IRQHandler
    DMA1_Stream4_IRQHandler
    DMA1_Stream5_IRQHandler
    DMA1_Stream6_IRQHandler
    DMA1_Stream7_IRQHandler
    DMA2_Stream0_IRQHandler
    DMA2_Stream1_IRQHandler
    DMA2_Stream2_IRQHandler
    DMA2_Stream3_IRQHandler
    DMA2_Stream4_IRQHandler
    DMA2_Stream5_IRQHandler
    DMA2_Stream6_IRQHandler
    DMA2_Stream7_IRQHandler
    EXTI0_IRQHandler
    EXTI15_10_IRQHandler
    EXTI1_IRQHandler
    EXTI2_IRQHandler
    EXTI3_IRQHandler
    EXTI4_IRQHandler
    EXTI9_5_IRQHandler
    FLASH_IRQHandler
    FPU_IRQHandler
    I2C1_ER_IRQHandler
    I2C1_EV_IRQHandler
    I2C2_ER_IRQHandler
    I2C2_EV_IRQHandler
    I2C3_ER_IRQHandler
    I2C3_EV_IRQHandler
    OTG_FS_IRQHandler
    OTG_FS_WKUP_IRQHandler
    PVD_IRQHandler
    RCC_IRQHandler
    RTC_Alarm_IRQHandler
    RTC_WKUP_IRQHandler
    SDIO_IRQHandler
    SPI1_IRQHandler
    SPI2_IRQHandler
    SPI3_IRQHandler
    SPI4_IRQHandler
    TAMP_STAMP_IRQHandler
    TIM1_BRK_TIM9_IRQHandler
    TIM1_CC_IRQHandler
    TIM1_TRG_COM_TIM11_IRQHandler
    TIM3_IRQHandler
    TIM4_IRQHandler
    TIM5_IRQHandler
    USART1_IRQHandler
    USART2_IRQHandler
    USART6_IRQHandler
    WWDG_IRQHandler
        0x080001c2:    e7fe        ..      B        ADC_IRQHandler ; 0x80001c2
    $d
        0x080001c4:    080003d9    ....    DCD    134218713
        0x080001c8:    08000195    ....    DCD    134218133
    $t
    .text
    __aeabi_uidiv
    __aeabi_uidivmod
        0x080001cc:    b530        0.      PUSH     {r4,r5,lr}
        0x080001ce:    460b        .F      MOV      r3,r1
        0x080001d0:    4601        .F      MOV      r1,r0
        0x080001d2:    2000        .       MOVS     r0,#0
        0x080001d4:    2220         "      MOVS     r2,#0x20
        0x080001d6:    2401        .$      MOVS     r4,#1
        0x080001d8:    e009        ..      B        0x80001ee ; __aeabi_uidiv + 34
        0x080001da:    fa21f502    !...    LSR      r5,r1,r2
        0x080001de:    429d        .B      CMP      r5,r3
        0x080001e0:    d305        ..      BCC      0x80001ee ; __aeabi_uidiv + 34
        0x080001e2:    fa03f502    ....    LSL      r5,r3,r2
        0x080001e6:    1b49        I.      SUBS     r1,r1,r5
        0x080001e8:    fa04f502    ....    LSL      r5,r4,r2
        0x080001ec:    4428        (D      ADD      r0,r0,r5
        0x080001ee:    1e15        ..      SUBS     r5,r2,#0
        0x080001f0:    f1a20201    ....    SUB      r2,r2,#1
        0x080001f4:    dcf1        ..      BGT      0x80001da ; __aeabi_uidiv + 14
        0x080001f6:    bd30        0.      POP      {r4,r5,pc}
    .text
    __scatterload
    __scatterload_rt2
        0x080001f8:    4c06        .L      LDR      r4,[pc,#24] ; [0x8000214] = 0x8000984
        0x080001fa:    4d07        .M      LDR      r5,[pc,#28] ; [0x8000218] = 0x80009a4
        0x080001fc:    e006        ..      B        0x800020c ; __scatterload + 20
        0x080001fe:    68e0        .h      LDR      r0,[r4,#0xc]
        0x08000200:    f0400301    @...    ORR      r3,r0,#1
        0x08000204:    e8940007    ....    LDM      r4,{r0-r2}
        0x08000208:    4798        .G      BLX      r3
        0x0800020a:    3410        .4      ADDS     r4,r4,#0x10
        0x0800020c:    42ac        .B      CMP      r4,r5
        0x0800020e:    d3f6        ..      BCC      0x80001fe ; __scatterload + 6
        0x08000210:    f7ffffc4    ....    BL       __main_after_scatterload ; 0x800019c
    $d
        0x08000214:    08000984    ....    DCD    134220164
        0x08000218:    080009a4    ....    DCD    134220196
    $t
    i.BusFault_Handler
    BusFault_Handler
        0x0800021c:    bf00        ..      NOP      
        0x0800021e:    e7fe        ..      B        0x800021e ; BusFault_Handler + 2
    i.DebugMon_Handler
    DebugMon_Handler
        0x08000220:    4770        pG      BX       lr
    i.HardFault_Handler
    HardFault_Handler
        0x08000222:    bf00        ..      NOP      
        0x08000224:    e7fe        ..      B        0x8000224 ; HardFault_Handler + 2
    i.MemManage_Handler
    MemManage_Handler
        0x08000226:    bf00        ..      NOP      
        0x08000228:    e7fe        ..      B        0x8000228 ; MemManage_Handler + 2
    i.NMI_Handler
    NMI_Handler
        0x0800022a:    4770        pG      BX       lr
    i.NVIC_Init
    NVIC_Init
        0x0800022c:    b570        p.      PUSH     {r4-r6,lr}
        0x0800022e:    2100        .!      MOVS     r1,#0
        0x08000230:    2300        .#      MOVS     r3,#0
        0x08000232:    220f        ."      MOVS     r2,#0xf
        0x08000234:    78c4        .x      LDRB     r4,[r0,#3]
        0x08000236:    b31c        ..      CBZ      r4,0x8000280 ; NVIC_Init + 84
        0x08000238:    4c17        .L      LDR      r4,[pc,#92] ; [0x8000298] = 0xe000ed0c
        0x0800023a:    6824        $h      LDR      r4,[r4,#0]
        0x0800023c:    f40464e0    ...d    AND      r4,r4,#0x700
        0x08000240:    f5c464e0    ...d    RSB      r4,r4,#0x700
        0x08000244:    f3c42107    ...!    UBFX     r1,r4,#8,#8
        0x08000248:    f1c10404    ....    RSB      r4,r1,#4
        0x0800024c:    b2e3        ..      UXTB     r3,r4
        0x0800024e:    410a        .A      ASRS     r2,r2,r1
        0x08000250:    7844        Dx      LDRB     r4,[r0,#1]
        0x08000252:    409c        .@      LSLS     r4,r4,r3
        0x08000254:    b2e1        ..      UXTB     r1,r4
        0x08000256:    7884        .x      LDRB     r4,[r0,#2]
        0x08000258:    4014        .@      ANDS     r4,r4,r2
        0x0800025a:    4321        !C      ORRS     r1,r1,r4
        0x0800025c:    070c        ..      LSLS     r4,r1,#28
        0x0800025e:    0e21        !.      LSRS     r1,r4,#24
        0x08000260:    4c0e        .L      LDR      r4,[pc,#56] ; [0x800029c] = 0xe000e400
        0x08000262:    7805        .x      LDRB     r5,[r0,#0]
        0x08000264:    5561        aU      STRB     r1,[r4,r5]
        0x08000266:    7804        .x      LDRB     r4,[r0,#0]
        0x08000268:    f004051f    ....    AND      r5,r4,#0x1f
        0x0800026c:    2401        .$      MOVS     r4,#1
        0x0800026e:    40ac        .@      LSLS     r4,r4,r5
        0x08000270:    7805        .x      LDRB     r5,[r0,#0]
        0x08000272:    116d        m.      ASRS     r5,r5,#5
        0x08000274:    00ad        ..      LSLS     r5,r5,#2
        0x08000276:    f10525e0    ...%    ADD      r5,r5,#0xe000e000
        0x0800027a:    f8c54100    ...A    STR      r4,[r5,#0x100]
        0x0800027e:    e009        ..      B        0x8000294 ; NVIC_Init + 104
        0x08000280:    7804        .x      LDRB     r4,[r0,#0]
        0x08000282:    f004051f    ....    AND      r5,r4,#0x1f
        0x08000286:    2401        .$      MOVS     r4,#1
        0x08000288:    40ac        .@      LSLS     r4,r4,r5
        0x0800028a:    4d05        .M      LDR      r5,[pc,#20] ; [0x80002a0] = 0xe000e180
        0x0800028c:    7806        .x      LDRB     r6,[r0,#0]
        0x0800028e:    1176        v.      ASRS     r6,r6,#5
        0x08000290:    f8454026    E.&@    STR      r4,[r5,r6,LSL #2]
        0x08000294:    bd70        p.      POP      {r4-r6,pc}
    $d
        0x08000296:    0000        ..      DCW    0
        0x08000298:    e000ed0c    ....    DCD    3758157068
        0x0800029c:    e000e400    ....    DCD    3758154752
        0x080002a0:    e000e180    ....    DCD    3758154112
    $t
    i.PendSV_Handler
    PendSV_Handler
        0x080002a4:    4770        pG      BX       lr
        0x080002a6:    0000        ..      MOVS     r0,r0
    i.RCC_APB1PeriphClockCmd
    RCC_APB1PeriphClockCmd
        0x080002a8:    b129        ).      CBZ      r1,0x80002b6 ; RCC_APB1PeriphClockCmd + 14
        0x080002aa:    4a06        .J      LDR      r2,[pc,#24] ; [0x80002c4] = 0x40023840
        0x080002ac:    6812        .h      LDR      r2,[r2,#0]
        0x080002ae:    4302        .C      ORRS     r2,r2,r0
        0x080002b0:    4b04        .K      LDR      r3,[pc,#16] ; [0x80002c4] = 0x40023840
        0x080002b2:    601a        .`      STR      r2,[r3,#0]
        0x080002b4:    e004        ..      B        0x80002c0 ; RCC_APB1PeriphClockCmd + 24
        0x080002b6:    4a03        .J      LDR      r2,[pc,#12] ; [0x80002c4] = 0x40023840
        0x080002b8:    6812        .h      LDR      r2,[r2,#0]
        0x080002ba:    4382        .C      BICS     r2,r2,r0
        0x080002bc:    4b01        .K      LDR      r3,[pc,#4] ; [0x80002c4] = 0x40023840
        0x080002be:    601a        .`      STR      r2,[r3,#0]
        0x080002c0:    4770        pG      BX       lr
    $d
        0x080002c2:    0000        ..      DCW    0
        0x080002c4:    40023840    @8.@    DCD    1073887296
    $t
    i.RCC_APB2PeriphClockCmd
    RCC_APB2PeriphClockCmd
        0x080002c8:    b129        ).      CBZ      r1,0x80002d6 ; RCC_APB2PeriphClockCmd + 14
        0x080002ca:    4a06        .J      LDR      r2,[pc,#24] ; [0x80002e4] = 0x40023844
        0x080002cc:    6812        .h      LDR      r2,[r2,#0]
        0x080002ce:    4302        .C      ORRS     r2,r2,r0
        0x080002d0:    4b04        .K      LDR      r3,[pc,#16] ; [0x80002e4] = 0x40023844
        0x080002d2:    601a        .`      STR      r2,[r3,#0]
        0x080002d4:    e004        ..      B        0x80002e0 ; RCC_APB2PeriphClockCmd + 24
        0x080002d6:    4a03        .J      LDR      r2,[pc,#12] ; [0x80002e4] = 0x40023844
        0x080002d8:    6812        .h      LDR      r2,[r2,#0]
        0x080002da:    4382        .C      BICS     r2,r2,r0
        0x080002dc:    4b01        .K      LDR      r3,[pc,#4] ; [0x80002e4] = 0x40023844
        0x080002de:    601a        .`      STR      r2,[r3,#0]
        0x080002e0:    4770        pG      BX       lr
    $d
        0x080002e2:    0000        ..      DCW    0
        0x080002e4:    40023844    D8.@    DCD    1073887300
    $t
    i.SVC_Handler
    SVC_Handler
        0x080002e8:    4770        pG      BX       lr
        0x080002ea:    0000        ..      MOVS     r0,r0
    i.SetSysClock
    SetSysClock
        0x080002ec:    b50c        ..      PUSH     {r2,r3,lr}
        0x080002ee:    2000        .       MOVS     r0,#0
        0x080002f0:    9001        ..      STR      r0,[sp,#4]
        0x080002f2:    9000        ..      STR      r0,[sp,#0]
        0x080002f4:    4833        3H      LDR      r0,[pc,#204] ; [0x80003c4] = 0x40023800
        0x080002f6:    6800        .h      LDR      r0,[r0,#0]
        0x080002f8:    f4403080    @..0    ORR      r0,r0,#0x10000
        0x080002fc:    4931        1I      LDR      r1,[pc,#196] ; [0x80003c4] = 0x40023800
        0x080002fe:    6008        .`      STR      r0,[r1,#0]
        0x08000300:    bf00        ..      NOP      
        0x08000302:    4830        0H      LDR      r0,[pc,#192] ; [0x80003c4] = 0x40023800
        0x08000304:    6800        .h      LDR      r0,[r0,#0]
        0x08000306:    f4003000    ...0    AND      r0,r0,#0x20000
        0x0800030a:    9000        ..      STR      r0,[sp,#0]
        0x0800030c:    9801        ..      LDR      r0,[sp,#4]
        0x0800030e:    1c40        @.      ADDS     r0,r0,#1
        0x08000310:    9001        ..      STR      r0,[sp,#4]
        0x08000312:    9800        ..      LDR      r0,[sp,#0]
        0x08000314:    b918        ..      CBNZ     r0,0x800031e ; SetSysClock + 50
        0x08000316:    9801        ..      LDR      r0,[sp,#4]
        0x08000318:    f5b04fa0    ...O    CMP      r0,#0x5000
        0x0800031c:    d1f1        ..      BNE      0x8000302 ; SetSysClock + 22
        0x0800031e:    4829        )H      LDR      r0,[pc,#164] ; [0x80003c4] = 0x40023800
        0x08000320:    6800        .h      LDR      r0,[r0,#0]
        0x08000322:    f4003000    ...0    AND      r0,r0,#0x20000
        0x08000326:    b110        ..      CBZ      r0,0x800032e ; SetSysClock + 66
        0x08000328:    2001        .       MOVS     r0,#1
        0x0800032a:    9000        ..      STR      r0,[sp,#0]
        0x0800032c:    e001        ..      B        0x8000332 ; SetSysClock + 70
        0x0800032e:    2000        .       MOVS     r0,#0
        0x08000330:    9000        ..      STR      r0,[sp,#0]
        0x08000332:    9800        ..      LDR      r0,[sp,#0]
        0x08000334:    2801        .(      CMP      r0,#1
        0x08000336:    d144        D.      BNE      0x80003c2 ; SetSysClock + 214
        0x08000338:    4822        "H      LDR      r0,[pc,#136] ; [0x80003c4] = 0x40023800
        0x0800033a:    3040        @0      ADDS     r0,r0,#0x40
        0x0800033c:    6800        .h      LDR      r0,[r0,#0]
        0x0800033e:    f0405080    @..P    ORR      r0,r0,#0x10000000
        0x08000342:    4920         I      LDR      r1,[pc,#128] ; [0x80003c4] = 0x40023800
        0x08000344:    3140        @1      ADDS     r1,r1,#0x40
        0x08000346:    6008        .`      STR      r0,[r1,#0]
        0x08000348:    481f        .H      LDR      r0,[pc,#124] ; [0x80003c8] = 0x40007000
        0x0800034a:    6800        .h      LDR      r0,[r0,#0]
        0x0800034c:    f4404040    @.@@    ORR      r0,r0,#0xc000
        0x08000350:    491d        .I      LDR      r1,[pc,#116] ; [0x80003c8] = 0x40007000
        0x08000352:    6008        .`      STR      r0,[r1,#0]
        0x08000354:    481b        .H      LDR      r0,[pc,#108] ; [0x80003c4] = 0x40023800
        0x08000356:    3008        .0      ADDS     r0,r0,#8
        0x08000358:    6800        .h      LDR      r0,[r0,#0]
        0x0800035a:    491a        .I      LDR      r1,[pc,#104] ; [0x80003c4] = 0x40023800
        0x0800035c:    3108        .1      ADDS     r1,r1,#8
        0x0800035e:    6008        .`      STR      r0,[r1,#0]
        0x08000360:    4608        .F      MOV      r0,r1
        0x08000362:    6800        .h      LDR      r0,[r0,#0]
        0x08000364:    6008        .`      STR      r0,[r1,#0]
        0x08000366:    4608        .F      MOV      r0,r1
        0x08000368:    6800        .h      LDR      r0,[r0,#0]
        0x0800036a:    f4405080    @..P    ORR      r0,r0,#0x1000
        0x0800036e:    6008        .`      STR      r0,[r1,#0]
        0x08000370:    4816        .H      LDR      r0,[pc,#88] ; [0x80003cc] = 0x7415408
        0x08000372:    1f09        ..      SUBS     r1,r1,#4
        0x08000374:    6008        .`      STR      r0,[r1,#0]
        0x08000376:    1f08        ..      SUBS     r0,r1,#4
        0x08000378:    6800        .h      LDR      r0,[r0,#0]
        0x0800037a:    f0407080    @..p    ORR      r0,r0,#0x1000000
        0x0800037e:    1f09        ..      SUBS     r1,r1,#4
        0x08000380:    6008        .`      STR      r0,[r1,#0]
        0x08000382:    bf00        ..      NOP      
        0x08000384:    480f        .H      LDR      r0,[pc,#60] ; [0x80003c4] = 0x40023800
        0x08000386:    6800        .h      LDR      r0,[r0,#0]
        0x08000388:    f0007000    ...p    AND      r0,r0,#0x2000000
        0x0800038c:    2800        .(      CMP      r0,#0
        0x0800038e:    d0f9        ..      BEQ      0x8000384 ; SetSysClock + 152
        0x08000390:    f2407002    @..p    MOV      r0,#0x702
        0x08000394:    490e        .I      LDR      r1,[pc,#56] ; [0x80003d0] = 0x40023c00
        0x08000396:    6008        .`      STR      r0,[r1,#0]
        0x08000398:    480a        .H      LDR      r0,[pc,#40] ; [0x80003c4] = 0x40023800
        0x0800039a:    3008        .0      ADDS     r0,r0,#8
        0x0800039c:    6800        .h      LDR      r0,[r0,#0]
        0x0800039e:    f0200003     ...    BIC      r0,r0,#3
        0x080003a2:    4908        .I      LDR      r1,[pc,#32] ; [0x80003c4] = 0x40023800
        0x080003a4:    3108        .1      ADDS     r1,r1,#8
        0x080003a6:    6008        .`      STR      r0,[r1,#0]
        0x080003a8:    4608        .F      MOV      r0,r1
        0x080003aa:    6800        .h      LDR      r0,[r0,#0]
        0x080003ac:    f0400002    @...    ORR      r0,r0,#2
        0x080003b0:    6008        .`      STR      r0,[r1,#0]
        0x080003b2:    bf00        ..      NOP      
        0x080003b4:    4803        .H      LDR      r0,[pc,#12] ; [0x80003c4] = 0x40023800
        0x080003b6:    3008        .0      ADDS     r0,r0,#8
        0x080003b8:    6800        .h      LDR      r0,[r0,#0]
        0x080003ba:    f000000c    ....    AND      r0,r0,#0xc
        0x080003be:    2808        .(      CMP      r0,#8
        0x080003c0:    d1f8        ..      BNE      0x80003b4 ; SetSysClock + 200
        0x080003c2:    bd0c        ..      POP      {r2,r3,pc}
    $d
        0x080003c4:    40023800    .8.@    DCD    1073887232
        0x080003c8:    40007000    .p.@    DCD    1073770496
        0x080003cc:    07415408    .TA.    DCD    121721864
        0x080003d0:    40023c00    .<.@    DCD    1073888256
    $t
    i.SysTick_Handler
    SysTick_Handler
        0x080003d4:    4770        pG      BX       lr
        0x080003d6:    0000        ..      MOVS     r0,r0
    i.SystemInit
    SystemInit
        0x080003d8:    b510        ..      PUSH     {r4,lr}
        0x080003da:    4815        .H      LDR      r0,[pc,#84] ; [0x8000430] = 0xe000ed88
        0x080003dc:    6800        .h      LDR      r0,[r0,#0]
        0x080003de:    f4400070    @.p.    ORR      r0,r0,#0xf00000
        0x080003e2:    4913        .I      LDR      r1,[pc,#76] ; [0x8000430] = 0xe000ed88
        0x080003e4:    6008        .`      STR      r0,[r1,#0]
        0x080003e6:    4813        .H      LDR      r0,[pc,#76] ; [0x8000434] = 0x40023800
        0x080003e8:    6800        .h      LDR      r0,[r0,#0]
        0x080003ea:    f0400001    @...    ORR      r0,r0,#1
        0x080003ee:    4911        .I      LDR      r1,[pc,#68] ; [0x8000434] = 0x40023800
        0x080003f0:    6008        .`      STR      r0,[r1,#0]
        0x080003f2:    2000        .       MOVS     r0,#0
        0x080003f4:    490f        .I      LDR      r1,[pc,#60] ; [0x8000434] = 0x40023800
        0x080003f6:    3108        .1      ADDS     r1,r1,#8
        0x080003f8:    6008        .`      STR      r0,[r1,#0]
        0x080003fa:    480e        .H      LDR      r0,[pc,#56] ; [0x8000434] = 0x40023800
        0x080003fc:    6800        .h      LDR      r0,[r0,#0]
        0x080003fe:    490e        .I      LDR      r1,[pc,#56] ; [0x8000438] = 0xfef6ffff
        0x08000400:    4008        .@      ANDS     r0,r0,r1
        0x08000402:    490c        .I      LDR      r1,[pc,#48] ; [0x8000434] = 0x40023800
        0x08000404:    6008        .`      STR      r0,[r1,#0]
        0x08000406:    480d        .H      LDR      r0,[pc,#52] ; [0x800043c] = 0x24003010
        0x08000408:    1d09        ..      ADDS     r1,r1,#4
        0x0800040a:    6008        .`      STR      r0,[r1,#0]
        0x0800040c:    1f08        ..      SUBS     r0,r1,#4
        0x0800040e:    6800        .h      LDR      r0,[r0,#0]
        0x08000410:    f4202080     ..     BIC      r0,r0,#0x40000
        0x08000414:    1f09        ..      SUBS     r1,r1,#4
        0x08000416:    6008        .`      STR      r0,[r1,#0]
        0x08000418:    2000        .       MOVS     r0,#0
        0x0800041a:    4906        .I      LDR      r1,[pc,#24] ; [0x8000434] = 0x40023800
        0x0800041c:    310c        .1      ADDS     r1,r1,#0xc
        0x0800041e:    6008        .`      STR      r0,[r1,#0]
        0x08000420:    f7ffff64    ..d.    BL       SetSysClock ; 0x80002ec
        0x08000424:    f04f6000    O..`    MOV      r0,#0x8000000
        0x08000428:    4901        .I      LDR      r1,[pc,#4] ; [0x8000430] = 0xe000ed88
        0x0800042a:    3980        .9      SUBS     r1,r1,#0x80
        0x0800042c:    6008        .`      STR      r0,[r1,#0]
        0x0800042e:    bd10        ..      POP      {r4,pc}
    $d
        0x08000430:    e000ed88    ....    DCD    3758157192
        0x08000434:    40023800    .8.@    DCD    1073887232
        0x08000438:    fef6ffff    ....    DCD    4277600255
        0x0800043c:    24003010    .0.$    DCD    603992080
    $t
    i.TIM1_UP_TIM10_IRQHandler
    TIM1_UP_TIM10_IRQHandler
        0x08000440:    b510        ..      PUSH     {r4,lr}
        0x08000442:    2101        .!      MOVS     r1,#1
        0x08000444:    4807        .H      LDR      r0,[pc,#28] ; [0x8000464] = 0x40010000
        0x08000446:    f000f876    ..v.    BL       TIM_GetITStatus ; 0x8000536
        0x0800044a:    2801        .(      CMP      r0,#1
        0x0800044c:    d108        ..      BNE      0x8000460 ; TIM1_UP_TIM10_IRQHandler + 32
        0x0800044e:    2101        .!      MOVS     r1,#1
        0x08000450:    4804        .H      LDR      r0,[pc,#16] ; [0x8000464] = 0x40010000
        0x08000452:    f000f861    ..a.    BL       TIM_ClearITPendingBit ; 0x8000518
        0x08000456:    4804        .H      LDR      r0,[pc,#16] ; [0x8000468] = 0x20000004
        0x08000458:    6800        .h      LDR      r0,[r0,#0]
        0x0800045a:    1c40        @.      ADDS     r0,r0,#1
        0x0800045c:    4902        .I      LDR      r1,[pc,#8] ; [0x8000468] = 0x20000004
        0x0800045e:    6008        .`      STR      r0,[r1,#0]
        0x08000460:    bd10        ..      POP      {r4,pc}
    $d
        0x08000462:    0000        ..      DCW    0
        0x08000464:    40010000    ...@    DCD    1073807360
        0x08000468:    20000004    ...     DCD    536870916
    $t
    i.TIM2_IRQHandler
    TIM2_IRQHandler
        0x0800046c:    b510        ..      PUSH     {r4,lr}
        0x0800046e:    2101        .!      MOVS     r1,#1
        0x08000470:    0788        ..      LSLS     r0,r1,#30
        0x08000472:    f000f860    ..`.    BL       TIM_GetITStatus ; 0x8000536
        0x08000476:    2801        .(      CMP      r0,#1
        0x08000478:    d11c        ..      BNE      0x80004b4 ; TIM2_IRQHandler + 72
        0x0800047a:    2101        .!      MOVS     r1,#1
        0x0800047c:    0780        ..      LSLS     r0,r0,#30
        0x0800047e:    f000f84b    ..K.    BL       TIM_ClearITPendingBit ; 0x8000518
        0x08000482:    2001        .       MOVS     r0,#1
        0x08000484:    490c        .I      LDR      r1,[pc,#48] ; [0x80004b8] = 0x20000000
        0x08000486:    6008        .`      STR      r0,[r1,#0]
        0x08000488:    480c        .H      LDR      r0,[pc,#48] ; [0x80004bc] = 0x20000004
        0x0800048a:    6800        .h      LDR      r0,[r0,#0]
        0x0800048c:    2832        2(      CMP      r0,#0x32
        0x0800048e:    d107        ..      BNE      0x80004a0 ; TIM2_IRQHandler + 52
        0x08000490:    0740        @.      LSLS     r0,r0,#29
        0x08000492:    6ac2        .j      LDR      r2,[r0,#0x2c]
        0x08000494:    4809        .H      LDR      r0,[pc,#36] ; [0x80004bc] = 0x20000004
        0x08000496:    6801        .h      LDR      r1,[r0,#0]
        0x08000498:    a009        ..      ADR      r0,{pc}+0x28 ; 0x80004c0
        0x0800049a:    f000f983    ....    BL       __0printf$1 ; 0x80007a4
        0x0800049e:    e007        ..      B        0x80004b0 ; TIM2_IRQHandler + 68
        0x080004a0:    f04f4080    O..@    MOV      r0,#0x40000000
        0x080004a4:    6ac2        .j      LDR      r2,[r0,#0x2c]
        0x080004a6:    4805        .H      LDR      r0,[pc,#20] ; [0x80004bc] = 0x20000004
        0x080004a8:    6801        .h      LDR      r1,[r0,#0]
        0x080004aa:    a00d        ..      ADR      r0,{pc}+0x36 ; 0x80004e0
        0x080004ac:    f000f97a    ..z.    BL       __0printf$1 ; 0x80007a4
        0x080004b0:    f000f921    ..!.    BL       UartEndSimulation ; 0x80006f6
        0x080004b4:    bd10        ..      POP      {r4,pc}
    $d
        0x080004b6:    0000        ..      DCW    0
        0x080004b8:    20000000    ...     DCD    536870912
        0x080004bc:    20000004    ...     DCD    536870916
        0x080004c0:    74736574    test    DCD    1953719668
        0x080004c4:    73617020     pas    DCD    1935765536
        0x080004c8:    756e2c73    s,nu    DCD    1970154611
        0x080004cc:    203d206d    m =     DCD    540876909
        0x080004d0:    612c6425    %d,a    DCD    1630299173
        0x080004d4:    3d206464    dd =    DCD    1025533028
        0x080004d8:    0d642520     %d.    DCD    224666912
        0x080004dc:    0000000a    ....    DCD    10
        0x080004e0:    74736574    test    DCD    1953719668
        0x080004e4:    69616620     fai    DCD    1767990816
        0x080004e8:    756e2c6c    l,nu    DCD    1970154604
        0x080004ec:    203d206d    m =     DCD    540876909
        0x080004f0:    612c6425    %d,a    DCD    1630299173
        0x080004f4:    3d206464    dd =    DCD    1025533028
        0x080004f8:    0d642520     %d.    DCD    224666912
        0x080004fc:    0000000a    ....    DCD    10
    $t
    i.TIM_ARRPreloadConfig
    TIM_ARRPreloadConfig
        0x08000500:    b121        !.      CBZ      r1,0x800050c ; TIM_ARRPreloadConfig + 12
        0x08000502:    8802        ..      LDRH     r2,[r0,#0]
        0x08000504:    f0420280    B...    ORR      r2,r2,#0x80
        0x08000508:    8002        ..      STRH     r2,[r0,#0]
        0x0800050a:    e004        ..      B        0x8000516 ; TIM_ARRPreloadConfig + 22
        0x0800050c:    8802        ..      LDRH     r2,[r0,#0]
        0x0800050e:    f64f737f    O..s    MOV      r3,#0xff7f
        0x08000512:    401a        .@      ANDS     r2,r2,r3
        0x08000514:    8002        ..      STRH     r2,[r0,#0]
        0x08000516:    4770        pG      BX       lr
    i.TIM_ClearITPendingBit
    TIM_ClearITPendingBit
        0x08000518:    43ca        .C      MVNS     r2,r1
        0x0800051a:    8202        ..      STRH     r2,[r0,#0x10]
        0x0800051c:    4770        pG      BX       lr
    i.TIM_Cmd
    TIM_Cmd
        0x0800051e:    b121        !.      CBZ      r1,0x800052a ; TIM_Cmd + 12
        0x08000520:    8802        ..      LDRH     r2,[r0,#0]
        0x08000522:    f0420201    B...    ORR      r2,r2,#1
        0x08000526:    8002        ..      STRH     r2,[r0,#0]
        0x08000528:    e004        ..      B        0x8000534 ; TIM_Cmd + 22
        0x0800052a:    8802        ..      LDRH     r2,[r0,#0]
        0x0800052c:    f64f73fe    O..s    MOV      r3,#0xfffe
        0x08000530:    401a        .@      ANDS     r2,r2,r3
        0x08000532:    8002        ..      STRH     r2,[r0,#0]
        0x08000534:    4770        pG      BX       lr
    i.TIM_GetITStatus
    TIM_GetITStatus
        0x08000536:    b530        0.      PUSH     {r4,r5,lr}
        0x08000538:    4602        .F      MOV      r2,r0
        0x0800053a:    2000        .       MOVS     r0,#0
        0x0800053c:    2300        .#      MOVS     r3,#0
        0x0800053e:    2400        .$      MOVS     r4,#0
        0x08000540:    8a15        ..      LDRH     r5,[r2,#0x10]
        0x08000542:    ea050301    ....    AND      r3,r5,r1
        0x08000546:    8995        ..      LDRH     r5,[r2,#0xc]
        0x08000548:    ea050401    ....    AND      r4,r5,r1
        0x0800054c:    b113        ..      CBZ      r3,0x8000554 ; TIM_GetITStatus + 30
        0x0800054e:    b10c        ..      CBZ      r4,0x8000554 ; TIM_GetITStatus + 30
        0x08000550:    2001        .       MOVS     r0,#1
        0x08000552:    e000        ..      B        0x8000556 ; TIM_GetITStatus + 32
        0x08000554:    2000        .       MOVS     r0,#0
        0x08000556:    bd30        0.      POP      {r4,r5,pc}
    i.TIM_ITConfig
    TIM_ITConfig
        0x08000558:    b11a        ..      CBZ      r2,0x8000562 ; TIM_ITConfig + 10
        0x0800055a:    8983        ..      LDRH     r3,[r0,#0xc]
        0x0800055c:    430b        .C      ORRS     r3,r3,r1
        0x0800055e:    8183        ..      STRH     r3,[r0,#0xc]
        0x08000560:    e002        ..      B        0x8000568 ; TIM_ITConfig + 16
        0x08000562:    8983        ..      LDRH     r3,[r0,#0xc]
        0x08000564:    438b        .C      BICS     r3,r3,r1
        0x08000566:    8183        ..      STRH     r3,[r0,#0xc]
        0x08000568:    4770        pG      BX       lr
        0x0800056a:    0000        ..      MOVS     r0,r0
    i.TIM_TimeBaseInit
    TIM_TimeBaseInit
        0x0800056c:    2200        ."      MOVS     r2,#0
        0x0800056e:    8802        ..      LDRH     r2,[r0,#0]
        0x08000570:    4b18        .K      LDR      r3,[pc,#96] ; [0x80005d4] = 0x40010000
        0x08000572:    4298        .B      CMP      r0,r3
        0x08000574:    d00e        ..      BEQ      0x8000594 ; TIM_TimeBaseInit + 40
        0x08000576:    4b18        .K      LDR      r3,[pc,#96] ; [0x80005d8] = 0x40010400
        0x08000578:    4298        .B      CMP      r0,r3
        0x0800057a:    d00b        ..      BEQ      0x8000594 ; TIM_TimeBaseInit + 40
        0x0800057c:    f1b04f80    ...O    CMP      r0,#0x40000000
        0x08000580:    d008        ..      BEQ      0x8000594 ; TIM_TimeBaseInit + 40
        0x08000582:    4b16        .K      LDR      r3,[pc,#88] ; [0x80005dc] = 0x40000400
        0x08000584:    4298        .B      CMP      r0,r3
        0x08000586:    d005        ..      BEQ      0x8000594 ; TIM_TimeBaseInit + 40
        0x08000588:    4b15        .K      LDR      r3,[pc,#84] ; [0x80005e0] = 0x40000800
        0x0800058a:    4298        .B      CMP      r0,r3
        0x0800058c:    d002        ..      BEQ      0x8000594 ; TIM_TimeBaseInit + 40
        0x0800058e:    4b15        .K      LDR      r3,[pc,#84] ; [0x80005e4] = 0x40000c00
        0x08000590:    4298        .B      CMP      r0,r3
        0x08000592:    d104        ..      BNE      0x800059e ; TIM_TimeBaseInit + 50
        0x08000594:    f64f738f    O..s    MOV      r3,#0xff8f
        0x08000598:    401a        .@      ANDS     r2,r2,r3
        0x0800059a:    884b        K.      LDRH     r3,[r1,#2]
        0x0800059c:    431a        .C      ORRS     r2,r2,r3
        0x0800059e:    4b12        .K      LDR      r3,[pc,#72] ; [0x80005e8] = 0x40001000
        0x080005a0:    4298        .B      CMP      r0,r3
        0x080005a2:    d007        ..      BEQ      0x80005b4 ; TIM_TimeBaseInit + 72
        0x080005a4:    4b11        .K      LDR      r3,[pc,#68] ; [0x80005ec] = 0x40001400
        0x080005a6:    4298        .B      CMP      r0,r3
        0x080005a8:    d004        ..      BEQ      0x80005b4 ; TIM_TimeBaseInit + 72
        0x080005aa:    f64f43ff    O..C    MOV      r3,#0xfcff
        0x080005ae:    401a        .@      ANDS     r2,r2,r3
        0x080005b0:    890b        ..      LDRH     r3,[r1,#8]
        0x080005b2:    431a        .C      ORRS     r2,r2,r3
        0x080005b4:    8002        ..      STRH     r2,[r0,#0]
        0x080005b6:    684b        Kh      LDR      r3,[r1,#4]
        0x080005b8:    62c3        .b      STR      r3,[r0,#0x2c]
        0x080005ba:    880b        ..      LDRH     r3,[r1,#0]
        0x080005bc:    8503        ..      STRH     r3,[r0,#0x28]
        0x080005be:    4b05        .K      LDR      r3,[pc,#20] ; [0x80005d4] = 0x40010000
        0x080005c0:    4298        .B      CMP      r0,r3
        0x080005c2:    d002        ..      BEQ      0x80005ca ; TIM_TimeBaseInit + 94
        0x080005c4:    4b04        .K      LDR      r3,[pc,#16] ; [0x80005d8] = 0x40010400
        0x080005c6:    4298        .B      CMP      r0,r3
        0x080005c8:    d101        ..      BNE      0x80005ce ; TIM_TimeBaseInit + 98
        0x080005ca:    7a8b        .z      LDRB     r3,[r1,#0xa]
        0x080005cc:    8603        ..      STRH     r3,[r0,#0x30]
        0x080005ce:    2301        .#      MOVS     r3,#1
        0x080005d0:    8283        ..      STRH     r3,[r0,#0x14]
        0x080005d2:    4770        pG      BX       lr
    $d
        0x080005d4:    40010000    ...@    DCD    1073807360
        0x080005d8:    40010400    ...@    DCD    1073808384
        0x080005dc:    40000400    ...@    DCD    1073742848
        0x080005e0:    40000800    ...@    DCD    1073743872
        0x080005e4:    40000c00    ...@    DCD    1073744896
        0x080005e8:    40001000    ...@    DCD    1073745920
        0x080005ec:    40001400    ...@    DCD    1073746944
    $t
    i.Tim1_init_M
    Tim1_init_M
        0x080005f0:    b51f        ..      PUSH     {r0-r4,lr}
        0x080005f2:    2101        .!      MOVS     r1,#1
        0x080005f4:    4608        .F      MOV      r0,r1
        0x080005f6:    f7fffe67    ..g.    BL       RCC_APB2PeriphClockCmd ; 0x80002c8
        0x080005fa:    2063        c       MOVS     r0,#0x63
        0x080005fc:    f8ad0004    ....    STRH     r0,[sp,#4]
        0x08000600:    9002        ..      STR      r0,[sp,#8]
        0x08000602:    2000        .       MOVS     r0,#0
        0x08000604:    f8ad000c    ....    STRH     r0,[sp,#0xc]
        0x08000608:    f8ad0006    ....    STRH     r0,[sp,#6]
        0x0800060c:    f88d000e    ....    STRB     r0,[sp,#0xe]
        0x08000610:    a901        ..      ADD      r1,sp,#4
        0x08000612:    4813        .H      LDR      r0,[pc,#76] ; [0x8000660] = 0x40010000
        0x08000614:    f7ffffaa    ....    BL       TIM_TimeBaseInit ; 0x800056c
        0x08000618:    4811        .H      LDR      r0,[pc,#68] ; [0x8000660] = 0x40010000
        0x0800061a:    8880        ..      LDRH     r0,[r0,#4]
        0x0800061c:    f64f718f    O..q    MOV      r1,#0xff8f
        0x08000620:    4008        .@      ANDS     r0,r0,r1
        0x08000622:    490f        .I      LDR      r1,[pc,#60] ; [0x8000660] = 0x40010000
        0x08000624:    8088        ..      STRH     r0,[r1,#4]
        0x08000626:    4608        .F      MOV      r0,r1
        0x08000628:    8880        ..      LDRH     r0,[r0,#4]
        0x0800062a:    f0400020    @. .    ORR      r0,r0,#0x20
        0x0800062e:    8088        ..      STRH     r0,[r1,#4]
        0x08000630:    2201        ."      MOVS     r2,#1
        0x08000632:    4611        .F      MOV      r1,r2
        0x08000634:    480a        .H      LDR      r0,[pc,#40] ; [0x8000660] = 0x40010000
        0x08000636:    f7ffff8f    ....    BL       TIM_ITConfig ; 0x8000558
        0x0800063a:    2101        .!      MOVS     r1,#1
        0x0800063c:    4808        .H      LDR      r0,[pc,#32] ; [0x8000660] = 0x40010000
        0x0800063e:    f7ffff6b    ..k.    BL       TIM_ClearITPendingBit ; 0x8000518
        0x08000642:    2019        .       MOVS     r0,#0x19
        0x08000644:    f88d0000    ....    STRB     r0,[sp,#0]
        0x08000648:    2001        .       MOVS     r0,#1
        0x0800064a:    f88d0001    ....    STRB     r0,[sp,#1]
        0x0800064e:    f88d0002    ....    STRB     r0,[sp,#2]
        0x08000652:    f88d0003    ....    STRB     r0,[sp,#3]
        0x08000656:    4668        hF      MOV      r0,sp
        0x08000658:    f7fffde8    ....    BL       NVIC_Init ; 0x800022c
        0x0800065c:    bd1f        ..      POP      {r0-r4,pc}
    $d
        0x0800065e:    0000        ..      DCW    0
        0x08000660:    40010000    ...@    DCD    1073807360
    $t
    i.Tim2_init_S
    Tim2_init_S
        0x08000664:    b51f        ..      PUSH     {r0-r4,lr}
        0x08000666:    2101        .!      MOVS     r1,#1
        0x08000668:    4608        .F      MOV      r0,r1
        0x0800066a:    f7fffe1d    ....    BL       RCC_APB1PeriphClockCmd ; 0x80002a8
        0x0800066e:    2000        .       MOVS     r0,#0
        0x08000670:    f8ad0004    ....    STRH     r0,[sp,#4]
        0x08000674:    2031        1       MOVS     r0,#0x31
        0x08000676:    9002        ..      STR      r0,[sp,#8]
        0x08000678:    2000        .       MOVS     r0,#0
        0x0800067a:    f8ad000c    ....    STRH     r0,[sp,#0xc]
        0x0800067e:    f8ad0006    ....    STRH     r0,[sp,#6]
        0x08000682:    a901        ..      ADD      r1,sp,#4
        0x08000684:    f04f4080    O..@    MOV      r0,#0x40000000
        0x08000688:    f7ffff70    ..p.    BL       TIM_TimeBaseInit ; 0x800056c
        0x0800068c:    f04f4080    O..@    MOV      r0,#0x40000000
        0x08000690:    8900        ..      LDRH     r0,[r0,#8]
        0x08000692:    f64f718f    O..q    MOV      r1,#0xff8f
        0x08000696:    4008        .@      ANDS     r0,r0,r1
        0x08000698:    f04f4180    O..A    MOV      r1,#0x40000000
        0x0800069c:    8108        ..      STRH     r0,[r1,#8]
        0x0800069e:    4608        .F      MOV      r0,r1
        0x080006a0:    8900        ..      LDRH     r0,[r0,#8]
        0x080006a2:    8108        ..      STRH     r0,[r1,#8]
        0x080006a4:    4608        .F      MOV      r0,r1
        0x080006a6:    8900        ..      LDRH     r0,[r0,#8]
        0x080006a8:    f64f71f8    O..q    MOV      r1,#0xfff8
        0x080006ac:    4008        .@      ANDS     r0,r0,r1
        0x080006ae:    f04f4180    O..A    MOV      r1,#0x40000000
        0x080006b2:    8108        ..      STRH     r0,[r1,#8]
        0x080006b4:    4608        .F      MOV      r0,r1
        0x080006b6:    8900        ..      LDRH     r0,[r0,#8]
        0x080006b8:    f0400007    @...    ORR      r0,r0,#7
        0x080006bc:    8108        ..      STRH     r0,[r1,#8]
        0x080006be:    2101        .!      MOVS     r1,#1
        0x080006c0:    0788        ..      LSLS     r0,r1,#30
        0x080006c2:    f7ffff1d    ....    BL       TIM_ARRPreloadConfig ; 0x8000500
        0x080006c6:    2201        ."      MOVS     r2,#1
        0x080006c8:    4611        .F      MOV      r1,r2
        0x080006ca:    0790        ..      LSLS     r0,r2,#30
        0x080006cc:    f7ffff44    ..D.    BL       TIM_ITConfig ; 0x8000558
        0x080006d0:    2101        .!      MOVS     r1,#1
        0x080006d2:    0788        ..      LSLS     r0,r1,#30
        0x080006d4:    f7ffff20    .. .    BL       TIM_ClearITPendingBit ; 0x8000518
        0x080006d8:    201c        .       MOVS     r0,#0x1c
        0x080006da:    f88d0000    ....    STRB     r0,[sp,#0]
        0x080006de:    2002        .       MOVS     r0,#2
        0x080006e0:    f88d0001    ....    STRB     r0,[sp,#1]
        0x080006e4:    2001        .       MOVS     r0,#1
        0x080006e6:    f88d0002    ....    STRB     r0,[sp,#2]
        0x080006ea:    f88d0003    ....    STRB     r0,[sp,#3]
        0x080006ee:    4668        hF      MOV      r0,sp
        0x080006f0:    f7fffd9c    ....    BL       NVIC_Init ; 0x800022c
        0x080006f4:    bd1f        ..      POP      {r0-r4,pc}
    i.UartEndSimulation
    UartEndSimulation
        0x080006f6:    2004        .       MOVS     r0,#4
        0x080006f8:    f000f802    ....    BL       UartPutc ; 0x8000700
        0x080006fc:    bf00        ..      NOP      
        0x080006fe:    e7fe        ..      B        0x80006fe ; UartEndSimulation + 8
    i.UartPutc
    UartPutc
        0x08000700:    bf00        ..      NOP      
        0x08000702:    4905        .I      LDR      r1,[pc,#20] ; [0x8000718] = 0x40011000
        0x08000704:    7809        .x      LDRB     r1,[r1,#0]
        0x08000706:    f0010180    ....    AND      r1,r1,#0x80
        0x0800070a:    2900        .)      CMP      r1,#0
        0x0800070c:    d0f9        ..      BEQ      0x8000702 ; UartPutc + 2
        0x0800070e:    f3c00108    ....    UBFX     r1,r0,#0,#9
        0x08000712:    4a01        .J      LDR      r2,[pc,#4] ; [0x8000718] = 0x40011000
        0x08000714:    6051        Q`      STR      r1,[r2,#4]
        0x08000716:    4770        pG      BX       lr
    $d
        0x08000718:    40011000    ...@    DCD    1073811456
    $t
    i.UartStdOutInit
    UartStdOutInit
        0x0800071c:    481d        .H      LDR      r0,[pc,#116] ; [0x8000794] = 0x40023830
        0x0800071e:    6800        .h      LDR      r0,[r0,#0]
        0x08000720:    f0400001    @...    ORR      r0,r0,#1
        0x08000724:    491b        .I      LDR      r1,[pc,#108] ; [0x8000794] = 0x40023830
        0x08000726:    6008        .`      STR      r0,[r1,#0]
        0x08000728:    481a        .H      LDR      r0,[pc,#104] ; [0x8000794] = 0x40023830
        0x0800072a:    3014        .0      ADDS     r0,r0,#0x14
        0x0800072c:    6800        .h      LDR      r0,[r0,#0]
        0x0800072e:    f0400010    @...    ORR      r0,r0,#0x10
        0x08000732:    4918        .I      LDR      r1,[pc,#96] ; [0x8000794] = 0x40023830
        0x08000734:    3114        .1      ADDS     r1,r1,#0x14
        0x08000736:    6008        .`      STR      r0,[r1,#0]
        0x08000738:    4817        .H      LDR      r0,[pc,#92] ; [0x8000798] = 0x40020000
        0x0800073a:    6a40        @j      LDR      r0,[r0,#0x24]
        0x0800073c:    f0400070    @.p.    ORR      r0,r0,#0x70
        0x08000740:    4915        .I      LDR      r1,[pc,#84] ; [0x8000798] = 0x40020000
        0x08000742:    6248        Hb      STR      r0,[r1,#0x24]
        0x08000744:    4608        .F      MOV      r0,r1
        0x08000746:    6800        .h      LDR      r0,[r0,#0]
        0x08000748:    f4402000    @..     ORR      r0,r0,#0x80000
        0x0800074c:    6008        .`      STR      r0,[r1,#0]
        0x0800074e:    4608        .F      MOV      r0,r1
        0x08000750:    6840        @h      LDR      r0,[r0,#4]
        0x08000752:    f4202000     ..     BIC      r0,r0,#0x80000
        0x08000756:    6048        H`      STR      r0,[r1,#4]
        0x08000758:    4608        .F      MOV      r0,r1
        0x0800075a:    6880        .h      LDR      r0,[r0,#8]
        0x0800075c:    f4402000    @..     ORR      r0,r0,#0x80000
        0x08000760:    6088        .`      STR      r0,[r1,#8]
        0x08000762:    4608        .F      MOV      r0,r1
        0x08000764:    68c0        .h      LDR      r0,[r0,#0xc]
        0x08000766:    f4402080    @..     ORR      r0,r0,#0x40000
        0x0800076a:    60c8        .`      STR      r0,[r1,#0xc]
        0x0800076c:    480b        .H      LDR      r0,[pc,#44] ; [0x800079c] = 0x40011000
        0x0800076e:    6880        .h      LDR      r0,[r0,#8]
        0x08000770:    f24021d9    @..!    MOV      r1,#0x2d9
        0x08000774:    4308        .C      ORRS     r0,r0,r1
        0x08000776:    4909        .I      LDR      r1,[pc,#36] ; [0x800079c] = 0x40011000
        0x08000778:    6088        .`      STR      r0,[r1,#8]
        0x0800077a:    4608        .F      MOV      r0,r1
        0x0800077c:    68c0        .h      LDR      r0,[r0,#0xc]
        0x0800077e:    f242010c    B...    MOV      r1,#0x200c
        0x08000782:    4308        .C      ORRS     r0,r0,r1
        0x08000784:    4905        .I      LDR      r1,[pc,#20] ; [0x800079c] = 0x40011000
        0x08000786:    60c8        .`      STR      r0,[r1,#0xc]
        0x08000788:    4608        .F      MOV      r0,r1
        0x0800078a:    69c0        .i      LDR      r0,[r0,#0x1c]
        0x0800078c:    f0400001    @...    ORR      r0,r0,#1
        0x08000790:    61c8        .a      STR      r0,[r1,#0x1c]
        0x08000792:    4770        pG      BX       lr
    $d
        0x08000794:    40023830    08.@    DCD    1073887280
        0x08000798:    40020000    ...@    DCD    1073872896
        0x0800079c:    40011000    ...@    DCD    1073811456
    $t
    i.UsageFault_Handler
    UsageFault_Handler
        0x080007a0:    bf00        ..      NOP      
        0x080007a2:    e7fe        ..      B        0x80007a2 ; UsageFault_Handler + 2
    i.__0printf$1
    __0printf$1
    __1printf$1
    __2printf
        0x080007a4:    b40f        ..      PUSH     {r0-r3}
        0x080007a6:    4b05        .K      LDR      r3,[pc,#20] ; [0x80007bc] = 0x8000939
        0x080007a8:    b510        ..      PUSH     {r4,lr}
        0x080007aa:    a903        ..      ADD      r1,sp,#0xc
        0x080007ac:    4a04        .J      LDR      r2,[pc,#16] ; [0x80007c0] = 0x20000008
        0x080007ae:    9802        ..      LDR      r0,[sp,#8]
        0x080007b0:    f000f818    ....    BL       _printf_core ; 0x80007e4
        0x080007b4:    bc10        ..      POP      {r4}
        0x080007b6:    f85dfb14    ]...    LDR      pc,[sp],#0x14
    $d
        0x080007ba:    0000        ..      DCW    0
        0x080007bc:    08000939    9...    DCD    134220089
        0x080007c0:    20000008    ...     DCD    536870920
    $t
    i.__scatterload_copy
    __scatterload_copy
        0x080007c4:    e002        ..      B        0x80007cc ; __scatterload_copy + 8
        0x080007c6:    c808        ..      LDM      r0!,{r3}
        0x080007c8:    1f12        ..      SUBS     r2,r2,#4
        0x080007ca:    c108        ..      STM      r1!,{r3}
        0x080007cc:    2a00        .*      CMP      r2,#0
        0x080007ce:    d1fa        ..      BNE      0x80007c6 ; __scatterload_copy + 2
        0x080007d0:    4770        pG      BX       lr
    i.__scatterload_null
    __scatterload_null
        0x080007d2:    4770        pG      BX       lr
    i.__scatterload_zeroinit
    __scatterload_zeroinit
        0x080007d4:    2000        .       MOVS     r0,#0
        0x080007d6:    e001        ..      B        0x80007dc ; __scatterload_zeroinit + 8
        0x080007d8:    c101        ..      STM      r1!,{r0}
        0x080007da:    1f12        ..      SUBS     r2,r2,#4
        0x080007dc:    2a00        .*      CMP      r2,#0
        0x080007de:    d1fb        ..      BNE      0x80007d8 ; __scatterload_zeroinit + 4
        0x080007e0:    4770        pG      BX       lr
        0x080007e2:    0000        ..      MOVS     r0,r0
    i._printf_core
    _printf_core
        0x080007e4:    e92d4fff    -..O    PUSH     {r0-r11,lr}
        0x080007e8:    b089        ..      SUB      sp,sp,#0x24
        0x080007ea:    469b        .F      MOV      r11,r3
        0x080007ec:    4604        .F      MOV      r4,r0
        0x080007ee:    2500        .%      MOVS     r5,#0
        0x080007f0:    e006        ..      B        0x8000800 ; _printf_core + 28
        0x080007f2:    2825        %(      CMP      r0,#0x25
        0x080007f4:    d00b        ..      BEQ      0x800080e ; _printf_core + 42
        0x080007f6:    465a        ZF      MOV      r2,r11
        0x080007f8:    990b        ..      LDR      r1,[sp,#0x2c]
        0x080007fa:    4790        .G      BLX      r2
        0x080007fc:    1c64        d.      ADDS     r4,r4,#1
        0x080007fe:    1c6d        m.      ADDS     r5,r5,#1
        0x08000800:    7820         x      LDRB     r0,[r4,#0]
        0x08000802:    2800        .(      CMP      r0,#0
        0x08000804:    d1f5        ..      BNE      0x80007f2 ; _printf_core + 14
        0x08000806:    b00d        ..      ADD      sp,sp,#0x34
        0x08000808:    4628        (F      MOV      r0,r5
        0x0800080a:    e8bd8ff0    ....    POP      {r4-r11,pc}
        0x0800080e:    2700        .'      MOVS     r7,#0
        0x08000810:    46b8        .F      MOV      r8,r7
        0x08000812:    2201        ."      MOVS     r2,#1
        0x08000814:    4947        GI      LDR      r1,[pc,#284] ; [0x8000934] = 0x12809
        0x08000816:    e000        ..      B        0x800081a ; _printf_core + 54
        0x08000818:    4307        .C      ORRS     r7,r7,r0
        0x0800081a:    f8143f01    ...?    LDRB     r3,[r4,#1]!
        0x0800081e:    3b20         ;      SUBS     r3,r3,#0x20
        0x08000820:    fa02f003    ....    LSL      r0,r2,r3
        0x08000824:    4208        .B      TST      r0,r1
        0x08000826:    d1f7        ..      BNE      0x8000818 ; _printf_core + 52
        0x08000828:    7820         x      LDRB     r0,[r4,#0]
        0x0800082a:    282e        .(      CMP      r0,#0x2e
        0x0800082c:    d119        ..      BNE      0x8000862 ; _printf_core + 126
        0x0800082e:    f8140f01    ....    LDRB     r0,[r4,#1]!
        0x08000832:    f0470704    G...    ORR      r7,r7,#4
        0x08000836:    282a        *(      CMP      r0,#0x2a
        0x08000838:    d00e        ..      BEQ      0x8000858 ; _printf_core + 116
        0x0800083a:    f06f022f    o./.    MVN      r2,#0x2f
        0x0800083e:    7820         x      LDRB     r0,[r4,#0]
        0x08000840:    f1a00130    ..0.    SUB      r1,r0,#0x30
        0x08000844:    2909        .)      CMP      r1,#9
        0x08000846:    d80c        ..      BHI      0x8000862 ; _printf_core + 126
        0x08000848:    eb080188    ....    ADD      r1,r8,r8,LSL #2
        0x0800084c:    eb020141    ..A.    ADD      r1,r2,r1,LSL #1
        0x08000850:    eb000801    ....    ADD      r8,r0,r1
        0x08000854:    1c64        d.      ADDS     r4,r4,#1
        0x08000856:    e7f2        ..      B        0x800083e ; _printf_core + 90
        0x08000858:    980a        ..      LDR      r0,[sp,#0x28]
        0x0800085a:    1c64        d.      ADDS     r4,r4,#1
        0x0800085c:    f8508b04    P...    LDR      r8,[r0],#4
        0x08000860:    900a        ..      STR      r0,[sp,#0x28]
        0x08000862:    7820         x      LDRB     r0,[r4,#0]
        0x08000864:    2800        .(      CMP      r0,#0
        0x08000866:    d0ce        ..      BEQ      0x8000806 ; _printf_core + 34
        0x08000868:    2864        d(      CMP      r0,#0x64
        0x0800086a:    d008        ..      BEQ      0x800087e ; _printf_core + 154
        0x0800086c:    2869        i(      CMP      r0,#0x69
        0x0800086e:    d006        ..      BEQ      0x800087e ; _printf_core + 154
        0x08000870:    2875        u(      CMP      r0,#0x75
        0x08000872:    d01e        ..      BEQ      0x80008b2 ; _printf_core + 206
        0x08000874:    465a        ZF      MOV      r2,r11
        0x08000876:    990b        ..      LDR      r1,[sp,#0x2c]
        0x08000878:    4790        .G      BLX      r2
        0x0800087a:    1c6d        m.      ADDS     r5,r5,#1
        0x0800087c:    e058        X.      B        0x8000930 ; _printf_core + 332
        0x0800087e:    990a        ..      LDR      r1,[sp,#0x28]
        0x08000880:    f04f090a    O...    MOV      r9,#0xa
        0x08000884:    c901        ..      LDM      r1!,{r0}
        0x08000886:    910a        ..      STR      r1,[sp,#0x28]
        0x08000888:    2800        .(      CMP      r0,#0
        0x0800088a:    da02        ..      BGE      0x8000892 ; _printf_core + 174
        0x0800088c:    4240        @B      RSBS     r0,r0,#0
        0x0800088e:    212d        -!      MOVS     r1,#0x2d
        0x08000890:    e002        ..      B        0x8000898 ; _printf_core + 180
        0x08000892:    0539        9.      LSLS     r1,r7,#20
        0x08000894:    d504        ..      BPL      0x80008a0 ; _printf_core + 188
        0x08000896:    212b        +!      MOVS     r1,#0x2b
        0x08000898:    f88d1020    .. .    STRB     r1,[sp,#0x20]
        0x0800089c:    2101        .!      MOVS     r1,#1
        0x0800089e:    e003        ..      B        0x80008a8 ; _printf_core + 196
        0x080008a0:    07f9        ..      LSLS     r1,r7,#31
        0x080008a2:    d004        ..      BEQ      0x80008ae ; _printf_core + 202
        0x080008a4:    2120         !      MOVS     r1,#0x20
        0x080008a6:    e7f7        ..      B        0x8000898 ; _printf_core + 180
        0x080008a8:    468a        .F      MOV      r10,r1
        0x080008aa:    ae08        ..      ADD      r6,sp,#0x20
        0x080008ac:    e00d        ..      B        0x80008ca ; _printf_core + 230
        0x080008ae:    2100        .!      MOVS     r1,#0
        0x080008b0:    e7fa        ..      B        0x80008a8 ; _printf_core + 196
        0x080008b2:    990a        ..      LDR      r1,[sp,#0x28]
        0x080008b4:    f04f090a    O...    MOV      r9,#0xa
        0x080008b8:    c901        ..      LDM      r1!,{r0}
        0x080008ba:    910a        ..      STR      r1,[sp,#0x28]
        0x080008bc:    e7f7        ..      B        0x80008ae ; _printf_core + 202
        0x080008be:    4649        IF      MOV      r1,r9
        0x080008c0:    f7fffc84    ....    BL       __aeabi_uidiv ; 0x80001cc
        0x080008c4:    3130        01      ADDS     r1,r1,#0x30
        0x080008c6:    f8061d01    ....    STRB     r1,[r6,#-1]!
        0x080008ca:    2800        .(      CMP      r0,#0
        0x080008cc:    d1f7        ..      BNE      0x80008be ; _printf_core + 218
        0x080008ce:    ebad0006    ....    SUB      r0,sp,r6
        0x080008d2:    f1000920    .. .    ADD      r9,r0,#0x20
        0x080008d6:    0778        x.      LSLS     r0,r7,#29
        0x080008d8:    d401        ..      BMI      0x80008de ; _printf_core + 250
        0x080008da:    f04f0801    O...    MOV      r8,#1
        0x080008de:    45c8        .E      CMP      r8,r9
        0x080008e0:    dd02        ..      BLE      0x80008e8 ; _printf_core + 260
        0x080008e2:    eba80009    ....    SUB      r0,r8,r9
        0x080008e6:    e000        ..      B        0x80008ea ; _printf_core + 262
        0x080008e8:    2000        .       MOVS     r0,#0
        0x080008ea:    4680        .F      MOV      r8,r0
        0x080008ec:    2700        .'      MOVS     r7,#0
        0x080008ee:    e006        ..      B        0x80008fe ; _printf_core + 282
        0x080008f0:    a808        ..      ADD      r0,sp,#0x20
        0x080008f2:    465a        ZF      MOV      r2,r11
        0x080008f4:    5dc0        .]      LDRB     r0,[r0,r7]
        0x080008f6:    990b        ..      LDR      r1,[sp,#0x2c]
        0x080008f8:    4790        .G      BLX      r2
        0x080008fa:    1c6d        m.      ADDS     r5,r5,#1
        0x080008fc:    1c7f        ..      ADDS     r7,r7,#1
        0x080008fe:    4557        WE      CMP      r7,r10
        0x08000900:    dbf6        ..      BLT      0x80008f0 ; _printf_core + 268
        0x08000902:    e004        ..      B        0x800090e ; _printf_core + 298
        0x08000904:    2030        0       MOVS     r0,#0x30
        0x08000906:    465a        ZF      MOV      r2,r11
        0x08000908:    990b        ..      LDR      r1,[sp,#0x2c]
        0x0800090a:    4790        .G      BLX      r2
        0x0800090c:    1c6d        m.      ADDS     r5,r5,#1
        0x0800090e:    f1b80100    ....    SUBS     r1,r8,#0
        0x08000912:    f1a80801    ....    SUB      r8,r8,#1
        0x08000916:    dcf5        ..      BGT      0x8000904 ; _printf_core + 288
        0x08000918:    e005        ..      B        0x8000926 ; _printf_core + 322
        0x0800091a:    f8160b01    ....    LDRB     r0,[r6],#1
        0x0800091e:    465a        ZF      MOV      r2,r11
        0x08000920:    990b        ..      LDR      r1,[sp,#0x2c]
        0x08000922:    4790        .G      BLX      r2
        0x08000924:    1c6d        m.      ADDS     r5,r5,#1
        0x08000926:    f1b90100    ....    SUBS     r1,r9,#0
        0x0800092a:    f1a90901    ....    SUB      r9,r9,#1
        0x0800092e:    dcf4        ..      BGT      0x800091a ; _printf_core + 310
        0x08000930:    1c64        d.      ADDS     r4,r4,#1
        0x08000932:    e765        e.      B        0x8000800 ; _printf_core + 28
    $d
        0x08000934:    00012809    .(..    DCD    75785
    $t
    i.fputc
    fputc
        0x08000938:    b510        ..      PUSH     {r4,lr}
        0x0800093a:    4603        .F      MOV      r3,r0
        0x0800093c:    460c        .F      MOV      r4,r1
        0x0800093e:    b2d8        ..      UXTB     r0,r3
        0x08000940:    f7fffede    ....    BL       UartPutc ; 0x8000700
        0x08000944:    bd10        ..      POP      {r4,pc}
        0x08000946:    0000        ..      MOVS     r0,r0
    i.main
    main
        0x08000948:    f7fffee8    ....    BL       UartStdOutInit ; 0x800071c
        0x0800094c:    a008        ..      ADR      r0,{pc}+0x24 ; 0x8000970
        0x0800094e:    f7ffff29    ..).    BL       __0printf$1 ; 0x80007a4
        0x08000952:    f7fffe4d    ..M.    BL       Tim1_init_M ; 0x80005f0
        0x08000956:    f7fffe85    ....    BL       Tim2_init_S ; 0x8000664
        0x0800095a:    2101        .!      MOVS     r1,#1
        0x0800095c:    0788        ..      LSLS     r0,r1,#30
        0x0800095e:    f7fffdde    ....    BL       TIM_Cmd ; 0x800051e
        0x08000962:    2101        .!      MOVS     r1,#1
        0x08000964:    4806        .H      LDR      r0,[pc,#24] ; [0x8000980] = 0x40010000
        0x08000966:    f7fffdda    ....    BL       TIM_Cmd ; 0x800051e
        0x0800096a:    e000        ..      B        0x800096e ; main + 38
        0x0800096c:    bf00        ..      NOP      
        0x0800096e:    e7fd        ..      B        0x800096c ; main + 36
    $d
        0x08000970:    54584554    TEXT    DCD    1415071060
        0x08000974:    41545320     STA    DCD    1096045344
        0x08000978:    0a0d5452    RT..    DCD    168645714
        0x0800097c:    00000000    ....    DCD    0
        0x08000980:    40010000    ...@    DCD    1073807360
    $d.realdata
    Region$$Table$$Base
        0x08000984:    080009a4    ....    DCD    134220196
        0x08000988:    20000000    ...     DCD    536870912
        0x0800098c:    0000000c    ....    DCD    12
        0x08000990:    080007c4    ....    DCD    134219716
        0x08000994:    080009b0    ....    DCD    134220208
        0x08000998:    2000000c    ...     DCD    536870924
        0x0800099c:    00001004    ....    DCD    4100
        0x080009a0:    080007d4    ....    DCD    134219732
    Region$$Table$$Limit

** Section #2 'RW_IRAM1' (SHT_PROGBITS) [SHF_ALLOC + SHF_WRITE]
    Size   : 12 bytes (alignment 4)
    Address: 0x20000000


** Section #3 'RW_IRAM1' (SHT_NOBITS) [SHF_ALLOC + SHF_WRITE]
    Size   : 4100 bytes (alignment 8)
    Address: 0x2000000c


** Section #4 '.debug_abbrev' (SHT_PROGBITS)
    Size   : 1476 bytes


** Section #5 '.debug_frame' (SHT_PROGBITS)
    Size   : 1812 bytes


** Section #6 '.debug_info' (SHT_PROGBITS)
    Size   : 21156 bytes


** Section #7 '.debug_line' (SHT_PROGBITS)
    Size   : 3936 bytes


** Section #8 '.debug_loc' (SHT_PROGBITS)
    Size   : 1196 bytes


** Section #9 '.debug_macinfo' (SHT_PROGBITS)
    Size   : 219320 bytes


** Section #10 '.debug_pubnames' (SHT_PROGBITS)
    Size   : 1192 bytes


** Section #11 '.symtab' (SHT_SYMTAB)
    Size   : 6112 bytes (alignment 4)
    String table #12 '.strtab'
    Last local symbol no. 227


** Section #12 '.strtab' (SHT_STRTAB)
    Size   : 7048 bytes


** Section #13 '.note' (SHT_NOTE)
    Size   : 28 bytes (alignment 4)


** Section #14 '.comment' (SHT_PROGBITS)
    Size   : 53152 bytes


** Section #15 '.shstrtab' (SHT_STRTAB)
    Size   : 156 bytes


